MPLAB ASM30 Listing:  aurora9x18mk2.s 			page 1
Aurora 9x18 mk2

   1              	;===============================================================================
   2              		.title	Aurora 9x18 mk2
   3              	;
   4              	;		by Akimitsu Sadoi - www.theLEDart.com
   5              	;-------------------------------------------------------------------------------
   6              	;	Version history
   7              	;	1.0	ported from PIC24FV16KA304 version (4/6/2012)
   8              	;	1.2 universal source code for Aurora 9x18 mk2 and 18x18
   9              	;===============================================================================
  10              	
  11              		.include "P24FV16KA301.INC"
   1              	;==========================================================================
   2              	;  PIC24FV16KA301 Standard Assembly Include File
   3              	; 
   4              	;  (c) Copyright 2011 Microchip Technology, All rights reserved
   5              	;==========================================================================
   6              	
 3007              	.LIST
  12              		.list	b=4
  13              		.include "SONY_TV.INC"	; Sony TV remote codes
   1              	;=====================================================================
   2              	;	Sony TV remote codes
   3              	;
   4              	
   5              	;--- command codes(device code=0x01 for TV) ---
   6              	;				key				|	code
   7              	; 			------------------------------
   8              		.equ	IR_key_Power		,	0x15
   9              		.equ	IR_key_Muting		,	0x14
  10              		.equ	IR_key_Sleep		,	0x36
  11              		.equ	IR_key_TV_VCR		,	0x25
  12              		.equ	IR_key_Display		,	0x3A
  13              		.equ	IR_key_1			,	0x00
  14              		.equ	IR_key_2			,	0x01
  15              		.equ	IR_key_3			,	0x02
  16              		.equ	IR_key_4			,	0x03
  17              		.equ	IR_key_5			,	0x04
  18              		.equ	IR_key_6			,	0x05
  19              		.equ	IR_key_7			,	0x06
  20              		.equ	IR_key_8			,	0x07
  21              		.equ	IR_key_9			,	0x08
  22              		.equ	IR_key_0			,	0x09
  23              		.equ	IR_key_Jump			,	0x3B
  24              		.equ	IR_key_Enter		,	0x0B
  25              		.equ	IR_key_Vol_up		,	0x12
  26              		.equ	IR_key_Vol_down		,	0x13
  27              		.equ	IR_key_Ch_up		,	0x10
  28              		.equ	IR_key_Ch_down		,	0x11
  29              		.equ	IR_key_Reset		,	0x16
  30              		.equ	IR_key_Menu			,	0x60
  31              		.equ	IR_key_up			,	0x74
  32              		.equ	IR_key_down			,	0x75
  33              		.equ	IR_key_left			,	0x34
  34              		.equ	IR_key_right		,	0x33
  35              		.equ	IR_key_center		,	0x65
  36              	
  37              	; device code
MPLAB ASM30 Listing:  aurora9x18mk2.s 			page 2
Aurora 9x18 mk2

  38              		.equ	device_sony_tv		,	0x01
  14              	
  15              	;===============================================================================
  16              	;	constants
  17              	;
  18              		.global __reset
  19              		.global __T2Interrupt				; Timer2 ISR entry
  20              		.global __T5Interrupt				; Timer5 ISR entry - auto-shutoff
  21              		.global __CNInterrupt				; IR (CN) ISR entry
  22              	;-------------------------------------------------------------------------------
  23              	;
  24              		.equ	osc_adjust,	0				; value to calibrate internal oscillator (-32 ~ +31)
  25              	
  26              		.equ	speed_step,0x8000/8			; speed adjust step value
  27              		.equ	speed_norm,0x7FFE			; speed adjust center/normal value
  28              	
  29              		.equ	max_bor, 10					; maximum number of BOR allowed in series
  30              	
  31              		.equ	num_modes,(mode_tbl_end-mode_tbl)/2
  32              	
  33              		;--- auto-shutoff timer setting ------------------------
  34              		.equ	shutoff_time, 0				; shutoff time in minutes (max:1,145 (about 19 Hours))
  35              	.if (shutoff_time != 0)
  36              		.equ	timer_ticks, (shutoff_time*3750000)
  37              		.equ	TIMER4_VAL, (timer_ticks & 0xFFFF)
  38              		.equ	TIMER5_VAL, (timer_ticks / 0x10000)
  39              		.equ	T4CON_VAL, ((1<<TON)+(1<<TCKPS1)+(1<<TCKPS0)+(1<<T32))
  40              	.endif
  41              		;--- PWM timing parameters -----------------------------
  42              		; LED refresh time = (pr_value+1)*(3*127+1)*Tcy = (pr_value+1)*382*Tcy
  43              		;   optimized for video @225 Hz
  44              	
  45              		.equ	max_duty, 0xFF				; duty cycle value for 100% duty (8 bit)
  46              		.equ	port_delay,	42				; delay time (in Tcy) between timer INT and port set (compensates for LED/C
  47              		.equ	port_delay_comp, 0			; pulse rinse time compensation value
  48              		.equ	port_blank, 68				; blank period before start of the pulse (compensates for RGB drivers' fall
  49              		.equ	pr_value, 186
  50              	
  51              		; Output Compare - double compare single-shot mode, system clock
  52              		.equ	OCCON_VAL,(1<<OCM2+1<<OCTSEL0+1<<OCTSEL1+1<<OCTSEL2)
  53              		; Output Compare - inverted output, sync to timer 2
  54              		.equ	OCCON2_VAL,(1<<12+1<<SYNCSEL2+1<<SYNCSEL3)
  55              	
  56              		;--- switch parameters ---------------------------------
  57              		.equ	debounce_time, 16			; (up to 16) x 2.048 mS
  58              		.equ	debounce_bits, (1<<debounce_time-1)
  59              		.equ	long_push_time, 240			; x 2.048 mS
  60              	
  61              		;--- IR receiver parameters ----------------------------
  62              		.equ	start_bit,		2000*16		; minimum duration of start bit (in micro second)
  63              		.equ	bit_threshold,	900*16		; threshold value used to determin the bit value(long/short pulse)(in 
  64              		.equ	accept_dev,	device_sony_tv
  65              		.equ	IR_timeout_pr,	500/2		; timeout period for key repeat (in milliseconds)
  66              	
  67              		;--- port & pin mapping for I/O ----------------------------------
  68              	
  69              		; switch 1 is connected to RA0/CN2
MPLAB ASM30 Listing:  aurora9x18mk2.s 			page 3
Aurora 9x18 mk2

  70              		.equ	SW1_PORT, PORTA
  71              		.equ	SW1_TRIS, TRISA
  72              		.equ	SW1_ANS, ANSELA				; analog select - not ANSx as the manual states
  73              		.equ	SW1_BIT, 0
  74              		.equ	SW1_CN, 2
  75              		; IR receiver is connected to RB15/CN11
  76              		.equ	IR_PORT, PORTB
  77              		.equ	IR_TRIS, TRISB
  78              		.equ	IR_ANS, ANSELB				; analog select - not ANSx as the manual states
  79              		.equ	IR_BIT, 15
  80              		.equ	IR_CN, 11
  81              		; analog input - RB14/AN10/CN12
  82              		.equ	AN_IN_PORT, PORTB
  83              		.equ	AN_IN_TRIS, TRISB
  84              		.equ	AN_ANS, ANSELB				; analog select - not ANSx as the manual states
  85              		.equ	AN_IN_BIT, 14
  86              		.equ	AN_IN_CN, 12
  87              		.equ	AN_IN_APIN, 10				; analog input #
  88              	
  89              	.ifdef __DEBUG
  90              		.equ	_debug_tris,TRISA
  91              		.equ	_debug_port,LATA
  92              		.equ	_debug_out,1
  93              	.endif
  94              	
  95              		;--- COL & ROW drive parameters ------------------------
  96              		.equ	COL_POL, 1					; 0:active-low 1:active-high
  97              		.equ	ROW_POL, 0					; 0:active-low 1:active-high
  98              		
  99              		.equ	num_COLs, 9					; number of COLs
 100              		.equ	num_ROWs, 1					; number of RGB ROWs
 101              		.equ	num_LEDs, num_COLs*num_ROWs	; number of LEDs
 102              	
 103              		;--- LEDs ----------------------------------------------
 104              		.equ	LED_1_PORT,_RA_
 105              		.equ	LED_1_PIN,3
 106              	
 107              		.equ	LED_2_PORT,_RA_
 108              		.equ	LED_2_PIN,2
 109              	
 110              		.equ	LED_3_PORT,_RB_
 111              		.equ	LED_3_PIN,2
 112              	
 113              		.equ	LED_4_PORT,_RB_
 114              		.equ	LED_4_PIN,13
 115              	
 116              		.equ	LED_5_PORT,_RB_
 117              		.equ	LED_5_PIN,12
 118              	
 119              		.equ	LED_6_PORT,_RB_
 120              		.equ	LED_6_PIN,9
 121              	
 122              		.equ	LED_7_PORT,_RB_
 123              		.equ	LED_7_PIN,8
 124              	
 125              		.equ	LED_8_PORT,_RA_
 126              		.equ	LED_8_PIN,4
MPLAB ASM30 Listing:  aurora9x18mk2.s 			page 4
Aurora 9x18 mk2

 127              	
 128              		.equ	LED_9_PORT,_RB_
 129              		.equ	LED_9_PIN,4
 130              	
 131              		.equ	PORTA_bits, 5				; highest port # used + 1
 132              		.equ	PORTB_bits, 16
 133              		.equ	PORTC_bits, 0
 134              	
 135              		;--- PWM R/G/B ports ---
 136              		.equ	PWM_R_LAT,LATB
 137              		.equ	PWM_R_PIN,7		; OC1/RB7
 138              		.equ	PWM_R_OC,OC1RS
 139              		.equ	PWM_R_OCC,OC1CON1
 140              	
 141              		.equ	PWM_G_LAT,LATB
 142              		.equ	PWM_G_PIN,1		; OC3/RB1
 143              		.equ	PWM_G_OC,OC3RS
 144              		.equ	PWM_G_OCC,OC3CON1
 145              	
 146              		.equ	PWM_B_LAT,LATB
 147              		.equ	PWM_B_PIN,0		; OC2/RB0
 148              		.equ	PWM_B_OC,OC2RS
 149              		.equ	PWM_B_OCC,OC2CON1
 150              	
 151              		.equ	_RA_,0
 152              		.equ	_RB_,(PORTA_bits*2)
 153              		.equ	_RC_,((PORTA_bits+PORTB_bits)*2)
 154              	
 155              		.text
 156              		;--- LED data -> duty_buff offset lookup table ---------
 157              	LED_pins:
 158 000000  06       		.byte	LED_1_PIN*2+LED_1_PORT
 159            04 00 		.byte	LED_2_PIN*2+LED_2_PORT
 160 000002  0E       		.byte	LED_3_PIN*2+LED_3_PORT
 161            24 00 		.byte	LED_4_PIN*2+LED_4_PORT
 162 000004  22       		.byte	LED_5_PIN*2+LED_5_PORT
 163            1C 00 		.byte	LED_6_PIN*2+LED_6_PORT
 164 000006  1A       		.byte	LED_7_PIN*2+LED_7_PORT
 165            08 00 		.byte	LED_8_PIN*2+LED_8_PORT
 166 000008  12       		.byte	LED_9_PIN*2+LED_9_PORT
 167              	
 168              	;===============================================================================
 169              	
 170              		.include "aurora_main.s"	; Aurora main codes
   1              	;===============================================================================
   2              		.title	Aurora main engine
   3              	;
   4              	;		by Akimitsu Sadoi - www.theLEDart.com
   5              	;-------------------------------------------------------------------------------
   6              	;	Version history
   7              	;	1.0	(04/12/2012)
   8              	;	1.1 audio interface detection at the startup added
   9              	;	1.2	PWM pulse inhibited when no LEDs are lit
  10              	;	1.3 IR remote receive service streamlined, and added data verification
  11              	;	1.4 speed adjustment kept in EEPROM
  12              	;===============================================================================
  13              	
MPLAB ASM30 Listing:  aurora9x18mk2.s 			page 5
Aurora main engine

  14              	;===============================================================================
  15              	;	constants
  16              	
  17              	;--- EEPROM location (relative) for parameter save ---
  18              		.equ	mode_save, 0			; mode number
  19              		.equ	speed_save, 2			; speed adjustment value
  20              	
  21              	;===============================================================================
  22              	;	variables
  23            00 00 	
  24              		.data
  25                 	
  26 0000 00 00       	mode_num:	.word 0					; mode (movment) number
  27 0002 00 00       	bor_count:	.word 0					; BOR counter
  28                 	
  29                 	var_start:							; top of variables to initialize
  30                 	
  31                 	;--- global flags ----------------------
  32                 	IR_flags:
  33 0004 00 00       	g_flags:	.space 2
  34                 		do_not_read = 0					; LED data being modified - do not display
  35                 		HSV_mode = 1					; HSV color mode
  36                 		RND_mode = 2					; random mode
  37                 		analog = 3						; analog mode
  38                 		an_peak = 4						; analog peak detected
  39                 		;--- IR flags ----------------------
  40                 		IR_RCV = 5						; IR deta being received
  41                 		IR_RCD = 7						; IR received flag
  42                 		;--- LED dimming -------------------
  43                 		dimmed1 = 8
  44                 		dimmed2 = 9
  45                 		;--- audio interface ---------------
  46                 		ai_detected = 10
  47                 		;--- other ---
  48                 		no_LED = 11						; no LEDs are on - inhibit PWM pulse out
  49                 	
  50                 	
  51                 	;--- IR receiver -----------------------
  52 0006 00 00       	IR_keycode:	.word 0					; IR key code received
  53 0008 00 00       	IR_device:	.word 0					; IR device code received
  54 000a 00 00       	_IR_data:	.word 0					; IR command being received (internal)
  55 000c 00 00       	IR_timeout:	.word 0					; IR command timeout counter
  56 000e FF 00       	_IR_last_data:	.word 0xFF			; last data received (internal)
  57 0010 FF 00       	IR_last_key:	.word 0xFF			; last key received (needs to be initialized with 0xFF)
  58                 	
  59                 	;--- analog data -----------------------
  60                 	.equ	ana_devbit1,3
  61                 	.equ	ana_samples1,1<<ana_devbit1		; number of samples to average
  62                 	.equ	ana_devbit2,5
  63                 	.equ	ana_samples2,1<<ana_devbit1
  64 0012 00 00 00 00 	analog_buf1:	.space 2*ana_samples1	; analog input value buffer
  64      00 00 00 00 
  64      00 00 00 00 
  64      00 00 00 00 
  65 0022 00 00       	analog_ptr1:	.word 0					; buffer pointer
  66 0024 00 00 00 00 	analog_buf2:	.space 2*ana_samples2	; analog input value buffer
  66      00 00 00 00 
MPLAB ASM30 Listing:  aurora9x18mk2.s 			page 6
Aurora main engine

  66      00 00 00 00 
  66      00 00 00 00 
  67 0034 00 00       	analog_ptr2:	.word 0					; buffer pointer
  68 0036 00 00       	analog_val1:	.space 2			; analog input value with slow decay - slowest
  69 0038 00 00       	analog_val2:	.space 2			; analog input value with slow decay
  70 003a 00 00       	analog_val3:	.space 2			; analog input value with slow decay - fastest
  71 003c 00 00       	analog_avg1:	.space 2
  72 003e 00 00       	analog_avg2:	.space 2
  73 0040 00 00       	an_peak_time:	.space 2			; peak detection 
  74 0042 00 00       	an_peak_cnt:	.space 2
  75 0044 00 00       	an_offset:		.space 2
  76                 	
  77                 	;--- button data -----------------------
  78                 	btn_data:							; button sample data
  79                 		button_flags = 0				; button flags
  80                 			btn_down = 0				; button is held down
  81                 			btn_long = 1				; long push
  82                 			btn_push = 2				; button has been pushed (long or short)
  83                 		samples = 2						; button status samples
  84                 		long_push = 4					; button long push counter
  85                 	
  86 0046 00 00 00 00 	btnA_data:	.space 6
  86      00 00 
  87                 	
  88                 	;--- animation parameters --------------
  89 004c 00 00       	update_rate:	.word 0				; overall animation speed
  90 004e 00 00       	update_cnt:		.word 0				; keeps track of animation update timing
  91                 	
  92                 	anim_params:
  93                 		anim_delay = 0
  94                 		anim_duty_diff = 2
  95                 		anim_step_up = 4
  96                 		anim_step_down = 6
  97                 		anim_update_rate = 8
  98                 		anim_update = 10
  99                 		anim_max_duty = 12
 100                 		anim_release_waitH = 14		; duty_hold at high duty will be released after this wait
 101                 		anim_release_waitL = 16		; duty_hold at low duty will be released after this wait
 102                 		anim_flags = 18
 103                 			af_direction = 0		; 0=forward, 1=reverse
 104                 			af_duty_hold_rs = 1		; DUTY_HOLD_RS
 105                 		anim_release_cnt = 20		; DUTY_HOLD release counter for each LED
 106                 	
 107                 	anim_params_R:
 108 0050 00 00       	delay_R:		.word 0
 109 0052 00 00       	duty_diff_R:	.word 0
 110 0054 00 00       	step_up_R:		.word 0
 111 0056 00 00       	step_down_R:	.word 0
 112 0058 00 00       	update_rate_R:	.word 0
 113 005a 00 00       	update_R:		.word 0
 114 005c 00 00       	max_duty_R:		.word 0
 115 005e 00 00       	release_waitH_R:	.word 0
 116 0060 00 00       	release_waitL_R:	.word 0
 117 0062 00 00       	anim_flags_R:	.word 0
 118 0064 00 00 00 00 	release_cnt_R:	.space 2*num_LEDs
 118      00 00 00 00 
 118      00 00 00 00 
MPLAB ASM30 Listing:  aurora9x18mk2.s 			page 7
Aurora main engine

 118      00 00 00 00 
 118      00 00 
 119                 	
 120                 	anim_params_G:
 121 0076 00 00       	delay_G:		.word 0
 122 0078 00 00       	duty_diff_G:	.word 0
 123 007a 00 00       	step_up_G:		.word 0
 124 007c 00 00       	step_down_G:	.word 0
 125 007e 00 00       	update_rate_G:	.word 0
 126 0080 00 00       	update_G:		.word 0
 127 0082 00 00       	max_duty_G:		.word 0
 128 0084 00 00       	release_waitH_G:	.word 0
 129 0086 00 00       	release_waitL_G:	.word 0
 130 0088 00 00       	anim_flags_G:	.word 0
 131 008a 00 00 00 00 	release_cnt_G:	.space 2*num_LEDs
 131      00 00 00 00 
 131      00 00 00 00 
 131      00 00 00 00 
 131      00 00 
 132                 	
 133                 	anim_params_B:
 134 009c 00 00       	delay_B:		.word 0
 135 009e 00 00       	duty_diff_B:	.word 0
 136 00a0 00 00       	step_up_B:		.word 0
 137 00a2 00 00       	step_down_B:	.word 0
 138 00a4 00 00       	update_rate_B:	.word 0
 139 00a6 00 00       	update_B:		.word 0
 140 00a8 00 00       	max_duty_B:		.word 0
 141 00aa 00 00       	release_waitH_B:	.word 0
 142 00ac 00 00       	release_waitL_B:	.word 0
 143 00ae 00 00       	anim_flags_B:	.word 0
 144 00b0 00 00 00 00 	release_cnt_B:	.space 2*num_LEDs
 144      00 00 00 00 
 144      00 00 00 00 
 144      00 00 00 00 
 144      00 00 
 145                 	
 146 00c2 00 00       	preprocess:		.space 2			; subroutine to call before animation process
 147                 	
 148                 	
 149                 	;--- LED data - duty levels, and other parameters/flags ---
 150                 	LED_data:
 151                 		DUTY_DIR = 14					; PWN duty sweep up/down direction (1=down)
 152                 		DUTY_HOLD = 15
 153                 	LED_data_R:
 154 00c4 00 00 00 00 	LED_data_R1:	.space 2*num_LEDs
 154      00 00 00 00 
 154      00 00 00 00 
 154      00 00 00 00 
 154      00 00 
 155                 	
 156                 	LED_data_G:
 157 00d6 00 00 00 00 	LED_data_G1:	.space 2*num_LEDs
 157      00 00 00 00 
 157      00 00 00 00 
 157      00 00 00 00 
 157      00 00 
MPLAB ASM30 Listing:  aurora9x18mk2.s 			page 8
Aurora main engine

 158                 	
 159                 	LED_data_B:
 160 00e8 00 00 00 00 	LED_data_B1:	.space 2*num_LEDs
 160      00 00 00 00 
 160      00 00 00 00 
 160      00 00 00 00 
 160      00 00 
 161                 	
 162                 	;--- HSV data buffer -------------------
 163 00fa 00 00 00 00 	LED_data_H:		.space 2*num_LEDs
 163      00 00 00 00 
 163      00 00 00 00 
 163      00 00 00 00 
 163      00 00 
 164 010c 00 00 00 00 	LED_data_S:		.space 2*num_LEDs
 164      00 00 00 00 
 164      00 00 00 00 
 164      00 00 00 00 
 164      00 00 
 165 011e 00 00 00 00 	LED_data_V:		.space 2*num_LEDs
 165      00 00 00 00 
 165      00 00 00 00 
 165      00 00 00 00 
 165      00 00 
 166                 	
 167                 	;--- for LED refresh/interrupt ---------
 168 0130 00 00       	RGB:	.word 0						; RGB channel counter
 169 0132 00 00       	output_duty:	.word 0				; PWM duty level being output
 170 0134 00 00       	pulse_duration: .word 0				; pulse duration for the PWM level
 171                 	
 172                 	duty_buff:							; LED data buffers
 173 0136 00 00 00 00 	duty_buff_R:	.space 2*(PORTA_bits+PORTB_bits+PORTC_bits)
 173      00 00 00 00 
 173      00 00 00 00 
 173      00 00 00 00 
 173      00 00 00 00 
 173      00 00 00 00 
 173      00 00 00 00 
 173      00 00 00 00 
 173      00 00 00 00 
 174 0160 00 00 00 00 	duty_buff_G:	.space 2*(PORTA_bits+PORTB_bits+PORTC_bits)
 174      00 00 00 00 
 174      00 00 00 00 
 174      00 00 00 00 
 174      00 00 00 00 
 174      00 00 00 00 
 174      00 00 00 00 
 174      00 00 00 00 
 174      00 00 00 00 
 175 018a 00 00 00 00 	duty_buff_B:	.space 2*(PORTA_bits+PORTB_bits+PORTC_bits)
 175      00 00 00 00 
 175      00 00 00 00 
 175      00 00 00 00 
 175      00 00 00 00 
 175      00 00 00 00 
 175      00 00 00 00 
 175      00 00 00 00 
MPLAB ASM30 Listing:  aurora9x18mk2.s 			page 9
Aurora main engine

 175      00 00 00 00 
 176                 	
 177 01b4 00 00 00 00 	port_buff:		.space 6			; PORTA/PORTB/PORTC buffers
 177      00 00 
 178                 	
 179                 	;--- RGB -> HSV conversion temporary variables ---
 180 01ba 00 00       	var_I:			.word 0
 181 01bc 00 00       	var_H:			.word 0
 182 01be 00 00       	var_1:			.word 0
 183 01c0 00 00       	var_2:			.word 0
 184 01c2 00 00       	var_3:			.word 0
 185                 	
 186                 	end_of_vars:							; end of variables area to initialize
 187                 	
 188                 	;===============================================================================
 189                 	;	main
 190                 	
 191                 		.text
 192              	__reset:
 193 00000a  01 00 A9 					bclr	CLKDIV,#RCDIV0				; set FRC postscaler to 0 (8 MHz)
 194              	
 195 00000c  00 00 20 					mov		#osc_adjust,w0				; adjust internal oscillator
 196 00000e  00 00 88 					mov		w0,OSCTUN
 197              	
 198 000010  0F 00 20 					mov		#__SP_init,w15				; Initialize stack pointer and stack limit register,
 199 000012  00 00 20 					mov		#__SPLIM_init,w0
 200 000014  00 00 88 					mov		w0,SPLIM					;
 201 000016  00 00 00 					nop									; A NOP here is required for proper SPLIM functionality
 202              	
 203              					;--- configure interrupt, etc. -----------------------
 204 000018  01 E0 A8 					bset	INTCON1,#NSTDIS				; disable nested interrupts
 205              	
 206 00001a  00 40 A8 					bset	CORCON,#PSV					; enable PSV
 207              	
 208              					;--- pause for apox. 250 ms --------------------------
 209 00001c  00 00 EB 					clr		w0
 210 00001e  3C 00 09 	0:				repeat	#60
 211 000020  00 60 FE 					clrwdt
 212 000022  00 00 E9 					dec		w0,w0
 213 000024  00 00 3A 					bra		NZ,0b
 214              	.if 0
 215              					;--- check if brown-out reset ------------------------
 216              					btss	RCON,#BOR
 217              					bra		0f
 218              	bor_start:
 219              					bclr	RCON,#BOR
 220              					inc		bor_count					; count BOR
 221              					mov		#max_bor,w0
 222              					cp		bor_count
 223              					bra		GEU,power_down				; power down if too many BOR occurred
 224              	0:
 225              	.endif
 226              					;--- check if cold or hot start ----------------------
 227 000026  00 00 AE 					btss	RCON,#POR
 228 000028  00 00 37 					bra		hot_start
 229              	cold_start:
 230 00002a  00 00 A9 					bclr	RCON,#POR
MPLAB ASM30 Listing:  aurora9x18mk2.s 			page 10
Aurora main engine

 231              					;--- clear RAM -----------------------------
 232 00002c  00 00 20 					mov		#var_start,w0				; make sure that the value is even number
 233 00002e  80 03 FC 					disi	#(end_of_vars-var_start)*2
 234 000030  DF 00 09 					repeat	#(end_of_vars-var_start)/2-1
 235 000032  00 18 EB 					clr		[w0++]						; or trap will result
 236              	hot_start:
 237              	
 238              					;--- configure I/O ports -----------------------------
 239              	.if (COL_POL)
 240 000034  00 20 EF 					clr		LATA						; clear all latches (LEDs are active-high)
 241 000036  00 20 EF 					clr		LATB
 242              	.if (PORTC_bits)
 243              					clr		LATC
 244              	.endif
 245              	.else
 246              					setm	LATA						; set all latches high (LEDs are active-low)
 247              					setm	LATB
 248              	.if (PORTC_bits)
 249              					setm	LATC
 250              	.endif
 251              	.endif
 252              	.if (ROW_POL)
 253              					bclr	PWM_R_LAT,#PWM_R_PIN		; set PWM pins low (inactive)
 254              					bclr	PWM_G_LAT,#PWM_G_PIN
 255              					bclr	PWM_B_LAT,#PWM_B_PIN
 256              	.else
 257 000038  00 E0 A8 					bset	PWM_R_LAT,#PWM_R_PIN		; set PWM pins high (inactive)
 258 00003a  00 20 A8 					bset	PWM_G_LAT,#PWM_G_PIN
 259 00003c  00 00 A8 					bset	PWM_B_LAT,#PWM_B_PIN
 260              	.endif
 261 00003e  00 20 EF 					clr		TRISA						; set all ports output
 262 000040  00 20 EF 					clr		TRISB
 263              	.if (PORTC_bits)
 264              					clr		TRISC
 265              	.endif
 266              					;--- detect audio interface ----------------
 267 000042  05 40 A9 					bclr	g_flags,#ai_detected		; clear the flag bit
 268 000044  01 C0 A8 					bset	AN_IN_TRIS,#AN_IN_BIT		; set AN-IN input
 269 000046  01 C0 A9 					bclr	AN_ANS,#AN_IN_BIT			; set AN-IN digital mode
 270 000048  01 80 A8 					bset	CNPD1+(AN_IN_CN/16)*2,#(AN_IN_CN%16) ; enable the pull-down
 271 00004a  7F 00 09 					repeat	#127							; wait for a moment
 272 00004c  00 60 FE 					clrwdt
 273 00004e  01 C0 AF 					btsc	AN_IN_PORT,#AN_IN_BIT		; if port is high
 274 000050  05 40 A8 					bset	g_flags,#ai_detected		;   set the flag bit
 275 000052  01 80 A9 					bclr	CNPD1+(AN_IN_CN/16)*2,#(AN_IN_CN%16) ; disable the pull-down
 276              	
 277 000054  01 80 A8 					bset	CNPU1+(AN_IN_CN/16)*2,#(AN_IN_CN%16) ; enable the pull-up
 278 000056  7F 00 09 					repeat	#127							; wait for a moment
 279 000058  00 60 FE 					clrwdt
 280 00005a  01 C0 AF 					btsc	AN_IN_PORT,#AN_IN_BIT		; if port is high
 281 00005c  05 40 AA 					btg		g_flags,#ai_detected		;   toggle the flag bit
 282 00005e  01 80 A9 					bclr	CNPU1+(AN_IN_CN/16)*2,#(AN_IN_CN%16) ; disable the pull-up
 283              	
 284 000060  05 40 AA 					btg		g_flags,#ai_detected		; toggle the flag bit again
 285              	
 286              					;--- configure SW input --------------------
 287 000062  00 00 A8 					bset	SW1_TRIS,#SW1_BIT			; set the switch port input
MPLAB ASM30 Listing:  aurora9x18mk2.s 			page 11
Aurora main engine

 288 000064  00 00 A9 					bclr	SW1_ANS,#SW1_BIT			; set digital mode
 289 000066  00 40 A8 					bset	CNPU1+(SW1_CN/16)*2,#(SW1_CN%16) ; enable the pull-ups
 290              	
 291              					;--- configure IR receiver input -----------
 292 000068  01 E0 A8 					bset	IR_TRIS,#IR_BIT				; set the IR port input
 293 00006a  01 E0 A9 					bclr	IR_ANS,#IR_BIT				; set digital mode
 294 00006c  01 60 A8 					bset	CNPU1+(IR_CN/16)*2,#(IR_CN%16) ; enable the pull-ups
 295 00006e  10 00 09 					repeat	#16							; wait for a moment for the port to settle
 296 000070  00 60 FE 					clrwdt
 297 000072  01 60 A8 					bset	CNEN1+(IR_CN/16)*2,#(IR_CN%16) ; enable CN interrupt on IR receiver pin
 298 000074  00 60 A8 					bset	IEC1,#CNIE					; enable CN interrupt
 299              	
 300              					;--- configure analog input (ADC) ----------
 301 000076  05 40 AE 					btss	g_flags,#ai_detected
 302 000078  00 00 37 					bra		0f
 303 00007a  01 C0 A8 					bset	AN_IN_TRIS,#AN_IN_BIT		; set AN-IN input
 304 00007c  01 C0 A8 					bset	AN_ANS,#AN_IN_BIT			; set AN-IN analog mode
 305 00007e  01 80 A8 					bset	CNPD1+(AN_IN_CN/16)*2,#(AN_IN_CN%16) ; enable the pull-down
 306 000080  A0 00 20 					mov		#AN_IN_APIN,w0				; set AN_IN_APIN as CH0 input
 307 000082  00 00 88 					mov		w0,AD1CHS
 308              	
 309 000084  00 07 20 					mov		#(1<<SSRC2+1<<SSRC1+1<<SSRC0),w0 ; auto-convert mode
 310 000086  00 00 88 					mov		w0,AD1CON1
 311              	
 312 000088  60 F1 21 					mov		#((31<<8)+22),w0			; sample time = 31 TAD, TAD = 23 Tcy
 313 00008a  00 00 88 					mov		w0,AD1CON3
 314              	
 315 00008c  01 40 A8 					bset	AD1CON1,#10					; activate 12 bit mode
 316              	
 317 00008e  01 E0 A8 					bset	AD1CON1,#ADON				; turn ADC on
 318 000090  00 20 A8 					bset	AD1CON1,#SAMP				; start sampling analog input
 319              	0:
 320              	.ifdef __DEBUG
 321              					bclr	_debug_tris,#_debug_out		; *DEBUG* set debug out
 322              	.endif
 323              					;--- configure Output Compare ------------------------
 324 000092  A0 02 20 					mov		#port_delay-port_delay_comp,w0
 325 000094  00 00 88 					mov		w0,OC1R						; set pulse start time
 326 000096  00 00 88 					mov		w0,OC2R					
 327 000098  00 00 88 					mov		w0,OC3R					
 328 00009a  C0 00 21 					mov		#OCCON2_VAL,w0				; set other parameters
 329 00009c  00 00 88 					mov		w0,OC1CON2
 330 00009e  00 00 88 					mov		w0,OC2CON2
 331 0000a0  00 00 88 					mov		w0,OC3CON2
 332              	
 333              					;--- configure timer2 for PWM service ----------------
 334 0000a2  A0 0B 20 					mov		#pr_value,w0				; set the time period
 335 0000a4  00 00 88 					mov		w0,PR2
 336 0000a6  01 E0 A8 					bset	T2CON,#TON					; start timer2
 337              	
 338 0000a8  00 60 FE 	0:				clrwdt
 339 0000aa  00 00 AE 					btss	SW1_PORT,#SW1_BIT			; wait until the button up
 340 0000ac  00 00 37 					bra		0b
 341              	
 342              	;-------------------------------------------------------------------------------
 343              	;
 344              	startup:
MPLAB ASM30 Listing:  aurora9x18mk2.s 			page 12
Aurora main engine

 345              	.if (shutoff_time != 0)
 346              					;--- set up TIMER4/5 for auto shut off ---
 347              					mov		#TIMER4_VAL,w0
 348              					mov		w0,PR4
 349              					mov		#TIMER5_VAL,w0
 350              					mov		w0,PR5
 351              					clr		TMR4
 352              					clr		TMR5
 353              					mov		#T4CON_VAL,w0
 354              					mov		w0,T4CON
 355              					
 356              					bclr	IFS1,#T5IF					; clear timer5 int flag
 357              					bset	IEC1,#T5IE					; enable timer5 int
 358              	.endif
 359              					;--- use TIMER1 as frame timebase --------------------
 360 0000ae  F0 FF 27 					mov		#0x7FFF,w0					; set PR1 = 0x7FFF
 361 0000b0  00 00 88 					mov		w0,PR1						; timer period = 2.048 mS
 362 0000b2  01 E0 A8 					bset	T1CON,#TON					; start timer 1
 363              	
 364              					;--- reset anim params ---------------------
 365 0000b4  00 00 20 					mov		#anim_params,w0				; make sure that the value is even number
 366 0000b6  E8 02 FC 					disi	#(end_of_vars-(anim_params))*2
 367 0000b8  B9 00 09 					repeat	#(end_of_vars-(anim_params))/2-1
 368 0000ba  00 18 EB 					clr		[w0++]						; or trap will result
 369              	
 370 0000bc  04 00 A9 					bclr	g_flags,#do_not_read		; clear do_not_read flag
 371 0000be  04 20 A9 					bclr	g_flags,#HSV_mode			; clear HSV mode flag
 372 0000c0  04 60 A9 					bclr	g_flags,#analog				; clear analog mode flag
 373 0000c2  05 60 A9 					bclr	g_flags,#no_LED				; clear no_LED flag
 374              	
 375              					;--- set default anim_parameters -----------
 376              					; set max_duty
 377 0000c4  F0 0F 20 					mov		#max_duty,w0
 378 0000c6  60 00 88 					mov		w0,anim_params_R+anim_max_duty
 379 0000c8  60 00 88 					mov		w0,anim_params_G+anim_max_duty
 380 0000ca  60 00 88 					mov		w0,anim_params_B+anim_max_duty
 381              	
 382              					;--- read EEPROM to restore previous mode ---
 383 0000cc  01 00 20 					mov		#mode_save,w1				; read location -> w1
 384 0000ce  00 00 02 					call	eeprom_read
 384         00 00 00 
 385 0000d2  00 00 88 					mov		w0,mode_num
 386              	
 387              					;--- read EEPROM to restore previous speed adjust ---
 388 0000d4  21 00 20 					mov		#speed_save,w1				; read location -> w1
 389 0000d6  00 00 02 					call	eeprom_read
 389         00 00 00 
 390 0000da  80 80 EA 					com		w0,w1						; if (w0 != 0xFFFF)
 391 0000dc  00 00 32 					bra		Z,0f						; {
 392 0000de  00 00 88 					mov		w0,update_rate				;   set update_rate
 393 0000e0  00 00 37 					bra		1f							; } else {
 394 0000e2  E0 FF 27 	0:				mov		#speed_norm,w0				;   set update_rate to the midway point
 395 0000e4  00 00 88 					mov		w0,update_rate				; }
 396              	1:
 397              					;--- keep mode_num within range ---
 398 0000e6  90 00 20 					mov		(#mode_tbl_end-#mode_tbl)/2-1,w0	; num_modes-1
 399 0000e8  00 00 E3 					cp		mode_num
MPLAB ASM30 Listing:  aurora9x18mk2.s 			page 13
Aurora main engine

 400 0000ea  00 00 36 					bra		LEU,1f
 401 0000ec  00 00 E2 					cp0		mode_num
 402 0000ee  00 00 3D 					bra		GE,0f						; if (mode_num < 0)
 403 0000f0  00 00 88 					mov		w0,mode_num					;   mode_num = num_modes-1
 404 0000f2  00 00 37 					bra		1f							; if (mode_num >= num_modes-1)
 405 0000f4  00 20 EF 	0:				clr		mode_num					;   mode_num = 0
 406 0000f6  00 00 80 	1:				mov		mode_num,w0
 407 0000f8  00 60 01 					bra		w0
 408              	mode_tbl:
 409 0000fa  00 00 37 					bra		mode_01
 410 0000fc  00 00 37 					bra		mode_02
 411 0000fe  00 00 37 					bra		mode_03
 412 000100  00 00 37 					bra		mode_04
 413 000102  00 00 37 					bra		mode_05
 414 000104  00 00 37 					bra		mode_06
 415 000106  00 00 37 					bra		mode_07
 416 000108  00 00 37 					bra		test_01
 417 00010a  00 00 37 					bra		audio_01
 418 00010c  00 00 37 					bra		audio_02
 419              	mode_tbl_end:
 420              	
 421              	
 422              	mode_01:		;---------------------------------
 423              					; half ripple - pastel (Aurora 9x18 classic)
 424              	
 425              					; set initial delay
 426 00010e  00 00 20 					mov		#0,w0
 427 000110  00 00 88 					mov		w0,anim_params_R+anim_delay
 428 000112  80 04 20 					mov		#num_LEDs*8,w0
 429 000114  00 00 88 					mov		w0,anim_params_G+anim_delay
 430 000116  00 09 20 					mov		#num_LEDs*16,w0
 431 000118  00 00 88 					mov		w0,anim_params_B+anim_delay
 432              	
 433              					; set update_rate
 434 00011a  A0 F3 2B 					mov		#0xBFFF-197,w0
 435 00011c  40 00 88 					mov		w0,anim_params_R+anim_update_rate
 436              	;				mov		#0xBFFF,w0
 437 00011e  40 00 88 					mov		w0,anim_params_G+anim_update_rate
 438              	;				mov		#0xBFFF+199,w0
 439 000120  40 00 88 					mov		w0,anim_params_B+anim_update_rate
 440              	
 441              					; set step_up
 442 000122  10 00 20 					mov		#1,w0
 443 000124  20 00 88 					mov		w0,anim_params_R+anim_step_up
 444 000126  20 00 88 					mov		w0,anim_params_G+anim_step_up
 445 000128  20 00 88 					mov		w0,anim_params_B+anim_step_up
 446              					; set step_down
 447 00012a  30 00 88 					mov		w0,anim_params_R+anim_step_down
 448 00012c  30 00 88 					mov		w0,anim_params_G+anim_step_down
 449 00012e  30 00 88 					mov		w0,anim_params_B+anim_step_down
 450              	
 451              					; set duty_diff
 452 000130  C0 01 20 					mov		#255/num_LEDs,w0
 453 000132  10 00 88 					mov		w0,anim_params_R+anim_duty_diff
 454 000134  10 00 88 					mov		w0,anim_params_G+anim_duty_diff
 455 000136  10 00 88 					mov		w0,anim_params_B+anim_duty_diff
 456              	
MPLAB ASM30 Listing:  aurora9x18mk2.s 			page 14
Aurora main engine

 457              					; set all DUTY_HOLD bits
 458 000138  00 00 20 					mov		#LED_data,w0
 459 00013a  1A 00 09 					repeat	#num_LEDs*3-1
 460 00013c  30 F0 A0 					bset	[w0++],#DUTY_HOLD
 461              	
 462 00013e  C5 E0 A9 					bclr	LED_data_R,#DUTY_HOLD
 463 000140  D7 E0 A9 					bclr	LED_data_G,#DUTY_HOLD
 464 000142  E9 E0 A9 					bclr	LED_data_B,#DUTY_HOLD
 465              	
 466 000144  00 00 37 					bra		main
 467              	
 468              	mode_02:		;-------------------------------------------
 469              					; half ripple - trianguler
 470              	
 471              					; set initial delay
 472 000146  00 00 20 					mov		#0,w0
 473 000148  00 00 88 					mov		w0,anim_params_R+anim_delay
 474 00014a  20 0A 20 					mov		#num_LEDs*18,w0
 475 00014c  00 00 88 					mov		w0,anim_params_G+anim_delay
 476 00014e  40 14 20 					mov		#num_LEDs*36,w0
 477 000150  00 00 88 					mov		w0,anim_params_B+anim_delay
 478              	
 479              					; set update_rate
 480 000152  F0 FF 27 					mov		#0xFFFF/2,w0
 481 000154  40 00 88 					mov		w0,anim_params_R+anim_update_rate
 482 000156  40 00 88 					mov		w0,anim_params_G+anim_update_rate
 483 000158  40 00 88 					mov		w0,anim_params_B+anim_update_rate
 484              	
 485              					; set step_up
 486 00015a  10 00 20 					mov		#1,w0
 487 00015c  20 00 88 					mov		w0,anim_params_R+anim_step_up
 488 00015e  20 00 88 					mov		w0,anim_params_G+anim_step_up
 489 000160  20 00 88 					mov		w0,anim_params_B+anim_step_up
 490              					; set step_down
 491 000162  20 00 20 					mov		#2,w0
 492 000164  30 00 88 					mov		w0,anim_params_R+anim_step_down
 493 000166  30 00 88 					mov		w0,anim_params_G+anim_step_down
 494 000168  30 00 88 					mov		w0,anim_params_B+anim_step_down
 495              	
 496              					; set duty_diff
 497 00016a  20 01 20 					mov		#255/num_LEDs*2/3,w0
 498 00016c  10 00 88 					mov		w0,anim_params_R+anim_duty_diff
 499 00016e  10 00 88 					mov		w0,anim_params_G+anim_duty_diff
 500 000170  10 00 88 					mov		w0,anim_params_B+anim_duty_diff
 501              	
 502              					; set all DUTY_HOLD bits
 503 000172  00 00 20 					mov		#LED_data,w0
 504 000174  1A 00 09 					repeat	#num_LEDs*3-1
 505 000176  30 F0 A0 					bset	[w0++],#DUTY_HOLD
 506              	
 507 000178  C5 E0 A9 					bclr	LED_data_R,#DUTY_HOLD
 508 00017a  D7 E0 A9 					bclr	LED_data_G,#DUTY_HOLD
 509 00017c  E9 E0 A9 					bclr	LED_data_B,#DUTY_HOLD
 510              	
 511 00017e  00 00 37 					bra		main
 512              	
 513              					;-------------------------------------------
MPLAB ASM30 Listing:  aurora9x18mk2.s 			page 15
Aurora main engine

 514              					; full ripple - rainbow
 515              	mode_04:
 516 000180  62 00 A8 					bset	anim_flags_R,#af_direction	; reverse direction - counter clockwise
 517 000182  88 00 A8 					bset	anim_flags_G,#af_direction	; reverse direction - counter clockwise
 518 000184  AE 00 A8 					bset	anim_flags_B,#af_direction	; reverse direction - counter clockwise
 519              	mode_03:
 520              					; set update_rate
 521 000186  F0 FF 27 					mov		#0xFFFF*50/100,w0
 522 000188  40 00 88 					mov		w0,anim_params_R+anim_update_rate
 523 00018a  F0 FF 27 					mov		#0xFFFF*50/100,w0
 524 00018c  40 00 88 					mov		w0,anim_params_G+anim_update_rate
 525 00018e  F0 FF 27 					mov		#0xFFFF*50/100,w0
 526 000190  40 00 88 					mov		w0,anim_params_B+anim_update_rate
 527              	
 528              					; set step_up
 529 000192  10 00 20 					mov		#1,w0
 530 000194  20 00 88 					mov		w0,anim_params_R+anim_step_up
 531 000196  20 00 88 					mov		w0,anim_params_G+anim_step_up
 532 000198  20 00 88 					mov		w0,anim_params_B+anim_step_up
 533              					; set step_down
 534 00019a  30 00 88 					mov		w0,anim_params_R+anim_step_down
 535 00019c  30 00 88 					mov		w0,anim_params_G+anim_step_down
 536 00019e  30 00 88 					mov		w0,anim_params_B+anim_step_down
 537              	
 538              					; set duty_diff
 539 0001a0  80 03 20 					mov		#255*2/num_LEDs,w0
 540 0001a2  10 00 88 					mov		w0,anim_params_R+anim_duty_diff
 541 0001a4  10 00 88 					mov		w0,anim_params_G+anim_duty_diff
 542 0001a6  10 00 88 					mov		w0,anim_params_B+anim_duty_diff
 543              	
 544              					; set all DUTY_HOLD bits
 545 0001a8  00 00 20 					mov		#LED_data,w0
 546 0001aa  1A 00 09 					repeat	#num_LEDs*3-1
 547 0001ac  30 F0 A0 					bset	[w0++],#DUTY_HOLD
 548              	
 549              					; clear DUTY_HOLD bits
 550 0001ae  C5 E0 A9 					bclr	LED_data_R,#DUTY_HOLD
 551 0001b0  DD E0 A9 					bclr	LED_data_G+(2*num_LEDs/3),#DUTY_HOLD
 552 0001b2  F5 E0 A9 					bclr	LED_data_B+(2*num_LEDs*2/3),#DUTY_HOLD
 553              	
 554 0001b4  00 00 37 					bra		main
 555              	
 556              					;-------------------------------------------
 557              					; HSV mode chase
 558              					; R->H, G->S, B->V
 559              	mode_06:
 560 0001b6  AE 00 A8 					bset	anim_flags_B,#af_direction	; reverse direction - counter clockwise
 561              	mode_05:
 562 0001b8  04 20 A8 					bset	g_flags,#HSV_mode			; HSV mode flag on
 563              	
 564              					; set max_duty*6 for H channel
 565 0001ba  A0 5F 20 					mov		#max_duty*6,w0
 566 0001bc  60 00 88 					mov		w0,anim_params_R+anim_max_duty
 567              	
 568              					; set initial delay
 569 0001be  00 00 20 					mov		#0,w0
 570 0001c0  00 00 88 					mov		w0,delay_R
MPLAB ASM30 Listing:  aurora9x18mk2.s 			page 16
Aurora main engine

 571 0001c2  00 00 88 					mov		w0,delay_G
 572 0001c4  00 00 88 					mov		w0,delay_B
 573              	
 574              					; set update_rate
 575 0001c6  00 00 21 					mov		#0x1000,w0
 576 0001c8  00 00 88 					mov		w0,update_rate_R
 577 0001ca  F0 FF 2F 					mov		#0xFFFF,w0
 578 0001cc  00 00 88 					mov		w0,update_rate_G
 579 0001ce  F0 FF 2F 					mov		#0xFFFF,w0
 580 0001d0  00 00 88 					mov		w0,update_rate_B
 581              	
 582              					; set step_up
 583 0001d2  10 00 20 					mov		#1,w0
 584 0001d4  00 00 88 					mov		w0,step_up_R
 585 0001d6  F0 0F 20 					mov		#255,w0
 586 0001d8  00 00 88 					mov		w0,step_up_G
 587 0001da  00 02 20 					mov		#256/8,w0
 588 0001dc  00 00 88 					mov		w0,step_up_B
 589              					; set step_down
 590 0001de  A0 5F 20 					mov		#max_duty*6,w0
 591 0001e0  00 00 88 					mov		w0,step_down_R
 592 0001e2  00 00 20 					mov		#0,w0
 593 0001e4  00 00 88 					mov		w0,step_down_G
 594 0001e6  10 00 20 					mov		#1,w0
 595 0001e8  00 00 88 					mov		w0,step_down_B
 596              	
 597              					; set duty_diff
 598 0001ea  10 00 20 					mov		#1,w0
 599 0001ec  00 00 88 					mov		w0,duty_diff_R
 600 0001ee  00 00 20 					mov		#0,w0
 601 0001f0  00 00 88 					mov		w0,duty_diff_G
 602 0001f2  C0 01 20 					mov		#255/num_LEDs,w0
 603 0001f4  00 00 88 					mov		w0,duty_diff_B
 604              	
 605              					; set all DUTY_HOLD bits
 606 0001f6  00 00 20 					mov		#LED_data_H,w0
 607 0001f8  1A 00 09 					repeat	#num_LEDs*3-1
 608 0001fa  30 F0 A0 					bset	[w0++],#DUTY_HOLD
 609              	
 610 0001fc  FB E0 A9 					bclr	LED_data_H,#DUTY_HOLD
 611 0001fe  0D E1 A9 					bclr	LED_data_S,#DUTY_HOLD
 612 000200  1F E1 A9 					bclr	LED_data_V,#DUTY_HOLD
 613              	
 614              					; set DUTY_HOLD_RS bits
 615 000202  AE 20 A8 					bset	anim_flags_B,#af_duty_hold_rs
 616              	
 617              					; set release_wait
 618 000204  10 00 20 					mov		#1,w0
 619 000206  00 00 88 					mov		w0,release_waitH_B
 620 000208  00 00 20 					mov		#0,w0
 621 00020a  00 00 88 					mov		w0,release_waitL_B
 622              	
 623 00020c  00 00 37 					bra		main
 624              	
 625              	mode_07:		;-------------------------------------------
 626              					; HSV mode - color change only
 627              					; R->H, G->S, B->V
MPLAB ASM30 Listing:  aurora9x18mk2.s 			page 17
Aurora main engine

 628              	
 629 00020e  04 20 A8 					bset	g_flags,#HSV_mode			; HSV mode flag on
 630              	
 631              					; set max_duty*6 for H channel
 632 000210  00 60 20 					mov		#(max_duty+1)*6,w0
 633 000212  60 00 88 					mov		w0,anim_params_R+anim_max_duty
 634              	
 635              					; set initial delay
 636 000214  00 00 20 					mov		#0,w0
 637 000216  00 00 88 					mov		w0,delay_R
 638 000218  00 00 88 					mov		w0,delay_G
 639 00021a  00 00 88 					mov		w0,delay_B
 640              	
 641              					; set update_rate
 642 00021c  F0 FF 20 					mov		#0x0FFF,w0
 643 00021e  00 00 88 					mov		w0,update_rate_R
 644 000220  F0 FF 2F 					mov		#0xFFFF,w0
 645 000222  00 00 88 					mov		w0,update_rate_G
 646 000224  F0 FF 2F 					mov		#0xFFFF,w0
 647 000226  00 00 88 					mov		w0,update_rate_B
 648              	
 649              					; set step_up
 650 000228  10 00 20 					mov		#1,w0
 651 00022a  00 00 88 					mov		w0,step_up_R
 652 00022c  F0 0F 20 					mov		#255,w0
 653 00022e  00 00 88 					mov		w0,step_up_G
 654 000230  10 00 20 					mov		#1,w0
 655 000232  00 00 88 					mov		w0,step_up_B
 656              					; set step_down
 657 000234  00 60 20 					mov		#(max_duty+1)*6,w0
 658 000236  00 00 88 					mov		w0,step_down_R
 659 000238  00 00 20 					mov		#0,w0
 660 00023a  00 00 88 					mov		w0,step_down_G
 661 00023c  00 00 88 					mov		w0,step_down_B
 662              	
 663              					; set duty_diff
 664 00023e  40 00 20 					mov		#4,w0
 665 000240  00 00 88 					mov		w0,duty_diff_R
 666              	
 667              					; set all DUTY_HOLD bits
 668 000242  00 00 20 					mov		#LED_data_H,w0
 669 000244  08 00 09 					repeat	#num_LEDs-1
 670 000246  30 F0 A0 					bset	[w0++],#DUTY_HOLD
 671              	
 672 000248  FB E0 A9 					bclr	LED_data_H,#DUTY_HOLD
 673              	
 674 00024a  00 00 37 					bra		main
 675              	
 676              	test_01:		;-------------------------------------------
 677              					; test RGB - chase
 678              	
 679              					; set initial delay
 680 00024c  00 00 20 					mov		#0,w0
 681 00024e  00 00 88 					mov		w0,delay_R
 682 000250  00 20 20 					mov		#256*2,w0
 683 000252  00 00 88 					mov		w0,delay_G
 684 000254  00 40 20 					mov		#256*4,w0
MPLAB ASM30 Listing:  aurora9x18mk2.s 			page 18
Aurora main engine

 685 000256  00 00 88 					mov		w0,delay_B
 686              	
 687              					; set update_rate -> max
 688 000258  F0 FF 2F 					mov		#0xFFFF,w0
 689 00025a  00 00 88 					mov		w0,update_rate_R
 690 00025c  00 00 88 					mov		w0,update_rate_G
 691 00025e  00 00 88 					mov		w0,update_rate_B
 692              	
 693              					; set step_up
 694 000260  10 00 20 					mov		#1,w0
 695 000262  00 00 88 					mov		w0,step_up_R
 696 000264  00 00 88 					mov		w0,step_up_G
 697 000266  00 00 88 					mov		w0,step_up_B
 698              					; set step_down
 699 000268  00 00 88 					mov		w0,step_down_R
 700 00026a  00 00 88 					mov		w0,step_down_G
 701 00026c  00 00 88 					mov		w0,step_down_B
 702              	
 703              					; set duty_diff
 704 00026e  C0 01 20 					mov		#0xFF/num_LEDs,w0
 705 000270  00 00 88 					mov		w0,duty_diff_R
 706 000272  00 00 88 					mov		w0,duty_diff_G
 707 000274  00 00 88 					mov		w0,duty_diff_B
 708              	
 709              					; set all DUTY_HOLD bits
 710 000276  00 00 20 					mov		#LED_data,w0
 711 000278  1A 00 09 					repeat	#num_LEDs*3-1
 712 00027a  30 F0 A0 					bset	[w0++],#DUTY_HOLD
 713              	
 714 00027c  C5 E0 A9 					bclr	LED_data_R1,#DUTY_HOLD
 715 00027e  D7 E0 A9 					bclr	LED_data_G1,#DUTY_HOLD
 716 000280  E9 E0 A9 					bclr	LED_data_B1,#DUTY_HOLD
 717              	
 718              					; set all DUTY_HOLD_RS bits
 719 000282  62 20 A8 					bset	anim_flags_R,#af_duty_hold_rs
 720 000284  88 20 A8 					bset	anim_flags_G,#af_duty_hold_rs
 721 000286  AE 20 A8 					bset	anim_flags_B,#af_duty_hold_rs
 722              	
 723              					; set release_wait
 724 000288  10 00 20 					mov		#1,w0
 725 00028a  00 00 88 					mov		w0,release_waitH_R
 726 00028c  00 00 88 					mov		w0,release_waitH_G
 727 00028e  00 00 88 					mov		w0,release_waitH_B
 728 000290  C0 3F 20 					mov		#0xFF*4,w0
 729 000292  00 00 88 					mov		w0,release_waitL_R
 730 000294  00 00 88 					mov		w0,release_waitL_G
 731 000296  00 00 88 					mov		w0,release_waitL_B
 732              	
 733 000298  00 00 37 					bra		main
 734              	
 735              	audio_01:		;-------------------------------------------
 736              					; audio mode 1
 737              	
 738 00029a  05 40 AF 					btsc	g_flags,#ai_detected		; skip if audio interface not detacted
 739 00029c  00 00 37 					bra		0f
 740 00029e  00 20 EF 					clr		mode_num
 741 0002a0  00 00 37 					bra		mode_change
MPLAB ASM30 Listing:  aurora9x18mk2.s 			page 19
Aurora main engine

 742              	0:
 743 0002a2  04 60 A8 					bset	g_flags,#analog				; set analog mode flag
 744 0002a4  00 00 20 					mov		#handle(analog_LED3),w0		; set analog_LED3 as preprocessor
 745 0002a6  00 00 88 					mov		w0,preprocess
 746              	
 747 0002a8  00 00 37 					bra		main
 748              	
 749              	audio_02:		;-------------------------------------------
 750              					; audio mode 2
 751              	
 752 0002aa  05 40 AF 					btsc	g_flags,#ai_detected		; skip if audio interface not detacted
 753 0002ac  00 00 37 					bra		0f
 754 0002ae  00 20 EF 					clr		mode_num
 755 0002b0  00 00 37 					bra		mode_change
 756              	0:
 757 0002b2  04 60 A8 					bset	g_flags,#analog				; set analog mode flag
 758 0002b4  04 20 A8 					bset	g_flags,#HSV_mode			; HSV mode flag on
 759 0002b6  00 00 20 					mov		#handle(analog_LED2),w0		; set analog_LED2 as preprocessor
 760 0002b8  00 00 88 					mov		w0,preprocess
 761              	
 762 0002ba  00 00 37 					bra		main
 763              	
 764              					;-------------------------------------------
 765              					; power down
 766              	__T5Interrupt:
 767              	power_down:
 768 0002bc  02 20 EF 					clr		bor_count					; clear BOR count
 769 0002be  00 60 FE 					clrwdt
 770 0002c0  00 A0 A9 					bclr	RCON,#SWDTEN				; disable WDT
 771 0002c2  01 E0 A9 					bclr	T1CON,#TON					; stop timer 1
 772 0002c4  01 E0 A9 					bclr	T2CON,#TON					; stop timer 2
 773 0002c6  00 E0 A9 					bclr	IEC0,#T2IE					; disable timer2 int
 774 0002c8  00 E0 A9 					bclr	IFS0,#T2IF					; clear timer2 int flag
 775 0002ca  01 80 A9 					bclr	IEC1,#T5IE					; disable timer5 int
 776 0002cc  01 80 A9 					bclr	IFS1,#T5IF					; clear timer5 int flag
 777              	
 778 0002ce  00 A0 EF 					setm	TRISA						; set all ports input/high-impedance
 779 0002d0  00 A0 EF 					setm	TRISB
 780              	.if (PORTC_bits)
 781              					setm	TRISC
 782              	.endif
 783 0002d2  00 00 AE 	0:				btss	SW1_PORT,#SW1_BIT			; wait until the button up
 784 0002d4  00 00 37 					bra		0b
 785              	
 786 0002d6  00 00 EB 					clr		w0							; pause for a bit to avoid SW chatter
 787 0002d8  7F 00 09 	0:				repeat	#127
 788 0002da  00 60 FE 					clrwdt
 789 0002dc  00 00 E9 					dec		w0,w0
 790 0002de  00 00 3A 					bra		NZ,0b
 791              	
 792 0002e0  01 E0 AE 	1:				btss	IR_PORT,#IR_BIT				; wait until the IR sensor inactive
 793 0002e2  00 00 37 					bra		1b
 794 0002e4  04 E0 A9 					bclr	IR_flags,#IR_RCD			; clear IR received flag
 795              	
 796 0002e6  00 60 A9 					bclr	IFS1,#CNIF					; clear CN int flag
 797 0002e8  00 40 A8 					bset	CNEN1+(SW1_CN/16)*2,#(SW1_CN%16) ; enable CN interrupt on SW1
 798 0002ea  00 60 A8 					bset	IEC1,#CNIE					;
MPLAB ASM30 Listing:  aurora9x18mk2.s 			page 20
Aurora main engine

 799 0002ec  00 40 FE 					pwrsav	#SLEEP_MODE					; go into sleep mode
 800              	
 801              					;--- wake from sleep -----------------------
 802 0002ee  00 00 AE 					btss	SW1_PORT,#SW1_BIT			; is the button down?
 803 0002f0  00 00 37 					bra		wake_up						;   then wake up
 804              														; otherwise wait for a moment to receive IR command
 805              					;--- use TIMER1 as timeout timer ---
 806 0002f2  F0 FF 27 					mov		#0x7FFF,w0					; set PR1 = 0x7FFF
 807 0002f4  00 00 88 					mov		w0,PR1						; timer period = 2.048 ms
 808 0002f6  00 60 A9 					bclr	IFS0,#T1IF					; clear timer 1 int flag
 809 0002f8  01 E0 A8 					bset	T1CON,#TON					; start timer 1
 810              	
 811 0002fa  A0 0F 20 					mov		#IR_timeout_pr,w0			; IR_timeout = IR_timeout_pr
 812 0002fc  00 00 88 					mov		w0,IR_timeout
 813              	0:
 814 0002fe  04 E0 AF 					btsc	IR_flags,#IR_RCD			; check if IR command received
 815 000300  00 00 37 					bra		verify_dev
 816              	
 817 000302  00 60 AE 					btss	IFS0,#T1IF					; wait for 2 ms
 818 000304  00 00 37 					bra		0b
 819 000306  00 60 A9 					bclr	IFS0,#T1IF					; clear timer 1 int flag
 820 000308  0C 20 ED 					dec		IR_timeout					; decrement IR key timeout counter
 821 00030a  00 00 3A 					bra		NZ,0b						; loop while (IR_timeout != 0)
 822 00030c  00 00 37 					bra		1b							; back to sleep if no IR command
 823              	verify_dev:
 824 00030e  10 00 20 					mov		#accept_dev,w0				; verify the device ID
 825 000310  08 00 E3 					cp		IR_device
 826 000312  00 00 3A 					bra		NZ,1b						; back to sleep if not accepted device
 827              	wake_up:											; command received - wake up
 828 000314  00 00 A8 					bset	RCON,#POR					; pretend cold start
 829 000316  00 00 FE 					reset
 830              	
 831              	;-----------------------------------------------------------------------------------------
 832              	
 833              	main:
 834              					;-------------------------------------------------------------------------
 835 000318  00 60 FE 					clrwdt
 836 00031a  00 A0 A8 					bset	RCON,#SWDTEN				; enable WDT
 837              	
 838 00031c  00 E0 A8 					bset	IEC0,#T2IE					; enable timer2 int for PWM
 839              	
 840              	main_loop:		;--- main loop -----------------------------------------------------------
 841 00031e  00 60 AE 					btss	IFS0,#T1IF					; wait for TIMER1 overflow
 842 000320  00 00 37 					bra		main_loop
 843 000322  00 60 A9 					bclr	IFS0,#T1IF					; clear T1IF
 844              	
 845              					;--- IR remote services ------------------------------
 846 000324  0C 20 ED 					dec		IR_timeout					; take care of IR key timeout
 847 000326  00 00 AE 					btss	SR,#C
 848 000328  10 A0 EF 					setm	IR_last_key					; clear the last key upon timeout
 849              	
 850 00032a  04 E0 AE 					btss	IR_flags,#IR_RCD			; if IR received flag set
 851 00032c  00 00 37 					bra		skip_IR						; {
 852 00032e  04 E0 A9 					bclr	IR_flags,#IR_RCD			;   clear the flag
 853              	
 854 000330  10 00 20 					mov		#accept_dev,w0				;   verify the device ID
 855 000332  08 00 E3 					cp		IR_device
MPLAB ASM30 Listing:  aurora9x18mk2.s 			page 21
Aurora main engine

 856 000334  00 00 3A 					bra		NZ,skip_IR
 857              	
 858 000336  00 00 80 					mov		IR_keycode,w0				;   is this a different key from the last one?
 859 000338  10 00 E3 					cp		IR_last_key
 860 00033a  00 00 32 					bra		Z,skip_IR
 861              														;   different key
 862 00033c  00 00 88 					mov		w0,IR_last_key				;   keep the keycode to compare later
 863 00033e  A1 0F 20 					mov		#IR_timeout_pr,w1			;   set the timeout counter
 864 000340  01 00 88 					mov		w1,IR_timeout
 865              	
 866              					;--- scan for the keys with functions ---
 867 000342  01 00 20 					mov		#psvpage(IR_key_table),w1	; set up PSV
 868 000344  01 00 88 					mov		w1,PSVPAG
 869 000346  01 00 20 					mov		#psvoffset(IR_key_table),w1
 870 000348  02 00 20 					mov		#psvoffset(IR_key_table_end),w2
 871 00034a  31 00 E1 	0:				cp		w0,[w1++]					; find the key code in the table {
 872 00034c  00 00 32 					bra		Z,IR_key_match				;   match found
 873 00034e  02 08 E1 					cp		w1,w2
 874 000350  00 00 3A 					bra		NZ,0b						; } loop until the table end
 875 000352  00 00 37 					bra		skip_IR						; no match found
 876              	IR_key_match:
 877 000354  02 00 20 					mov		#psvoffset(IR_key_table),w2	; using w1-w2 as index
 878 000356  82 80 50 					sub		w1,w2,w1
 879 000358  81 00 D1 					lsr		w1,w1
 880 00035a  81 00 E9 					dec		w1,w1
 881 00035c  01 60 01 					bra		w1							; jump to the fuction
 882              	
 883 00035e  00 00 37 					bra		func_next_mode
 884 000360  00 00 37 					bra		func_next_mode
 885 000362  00 00 37 					bra		func_prev_mode
 886 000364  00 00 37 					bra		func_prev_mode
 887 000366  00 00 37 					bra		func_pause
 888 000368  00 00 37 					bra		func_inc_speed
 889 00036a  00 00 37 					bra		func_inc_speed
 890 00036c  00 00 37 					bra		func_dec_speed
 891 00036e  00 00 37 					bra		func_dec_speed
 892 000370  00 00 37 					bra		power_down
 893 000372  00 00 37 					bra		power_down
 894 000374  00 00 37 					bra		func_jump					; 1
 895 000376  00 00 37 					bra		func_jump					; 2
 896 000378  00 00 37 					bra		func_jump					; 3
 897 00037a  00 00 37 					bra		func_jump					; 4
 898 00037c  00 00 37 					bra		func_jump					; 5
 899 00037e  00 00 37 					bra		func_jump					; 6
 900 000380  00 00 37 					bra		func_jump					; 7
 901 000382  00 00 37 					bra		func_jump					; 8
 902 000384  00 00 37 					bra		func_jump					; 9
 903 000386  00 00 37 					bra		func_jump					; 0 (10)
 904 000388  00 00 37 					bra		func_dimm
 905 00038a  00 00 37 					bra		func_reset
 906              	IR_key_table:	;-----------------------------------------------------
 907 00038c  74 00 00 					.word	IR_key_up					; next mode
 908 00038e  10 00 00 					.word	IR_key_Ch_up				; next mode
 909 000390  75 00 00 					.word	IR_key_down					; prev mode
 910 000392  11 00 00 					.word	IR_key_Ch_down				; prev mode
 911 000394  65 00 00 					.word	IR_key_center				; pause
 912 000396  33 00 00 					.word	IR_key_right				; increase speed
MPLAB ASM30 Listing:  aurora9x18mk2.s 			page 22
Aurora main engine

 913 000398  12 00 00 					.word	IR_key_Vol_up				; increase speed
 914 00039a  34 00 00 					.word	IR_key_left					; decrease speed
 915 00039c  13 00 00 					.word	IR_key_Vol_down				; decrease speed
 916 00039e  15 00 00 					.word	IR_key_Power				; power off
 917 0003a0  36 00 00 					.word	IR_key_Sleep				; power off
 918 0003a2  00 00 00 					.word	IR_key_1					; jump to mode 1
 919 0003a4  01 00 00 					.word	IR_key_2					; jump to mode 2
 920 0003a6  02 00 00 					.word	IR_key_3					; jump to mode 3
 921 0003a8  03 00 00 					.word	IR_key_4
 922 0003aa  04 00 00 					.word	IR_key_5
 923 0003ac  05 00 00 					.word	IR_key_6
 924 0003ae  06 00 00 					.word	IR_key_7
 925 0003b0  07 00 00 					.word	IR_key_8
 926 0003b2  08 00 00 					.word	IR_key_9
 927 0003b4  09 00 00 					.word	IR_key_0
 928 0003b6  14 00 00 					.word	IR_key_Muting				; dim LEDs
 929 0003b8  16 00 00 					.word	IR_key_Reset				; reset functions
 930              	IR_key_table_end:	;-------------------------------------------------
 931              	
 932              	
 933              	func_next_mode:	;---------------------------------
 934 0003ba  00 20 EC 					inc		mode_num					; go to next mode
 935 0003bc  00 00 37 					bra		mode_change
 936              	
 937              	func_prev_mode:	;---------------------------------
 938 0003be  00 20 ED 					dec		mode_num					; go to prev mode
 939 0003c0  00 00 37 					bra		mode_change
 940              	
 941              	func_pause:		;---------------------------------
 942 0003c2  4C 00 E2 					cp0		update_rate					; re-start if update_rate == 0
 943 0003c4  00 00 32 					bra		Z,1f
 944 0003c6  4C 20 EF 					clr		update_rate					; otherwise pause the animation
 945 0003c8  00 00 37 					bra		skip_IR
 946              	1:													; start the animation
 947              														; set update_rate to the saved value
 948 0003ca  21 00 20 					mov		#speed_save,w1				; read location -> w1
 949 0003cc  00 00 02 					call	eeprom_read
 949         00 00 00 
 950 0003d0  00 00 88 					mov		w0,update_rate
 951              	
 952 0003d2  00 00 37 					bra		skip_IR
 953              	
 954              	func_inc_speed:	;---------------------------------
 955              	.if 0
 956              					mov		#0xFFFF,w0
 957              					cp		update_rate					; skip if the speed is already max
 958              					bra		Z,skip_IR
 959              					sl		update_rate					; update_rate <<= 1
 960              					bset	update_rate,#0				; update_rate += 1
 961              	.else
 962 0003d4  F0 FF 2E 					mov		#(0xFFFF-speed_step),w0
 963 0003d6  4C 00 E3 					cp		update_rate					; skip if the speed is already max
 964 0003d8  00 00 3E 					bra		GTU,skip_IR
 965 0003da  00 00 21 					mov		#speed_step,w0
 966 0003dc  4C 20 B4 					add		update_rate
 967              	.endif
 968 0003de  00 00 80 					mov		update_rate,w0				; write the new value into EEPROM
MPLAB ASM30 Listing:  aurora9x18mk2.s 			page 23
Aurora main engine

 969 0003e0  21 00 20 					mov		#speed_save,w1				; location
 970 0003e2  00 00 02 					call	eeprom_write
 970         00 00 00 
 971              	
 972 0003e6  00 00 37 					bra		skip_IR
 973              	
 974              	func_dec_speed:	;---------------------------------
 975              	.if 0
 976              					cp0		update_rate					; skip if the speed is already min
 977              					bra		Z,skip_IR
 978              					lsr		update_rate					; update_rate >>= 1
 979              	.else
 980 0003e8  00 00 21 					mov		#speed_step,w0
 981 0003ea  4C 00 E3 					cp		update_rate					; skip if the speed is already min
 982 0003ec  00 00 36 					bra		LEU,skip_IR
 983 0003ee  4C 20 B5 					sub		update_rate
 984              	.endif
 985 0003f0  00 00 80 					mov		update_rate,w0				; write the new value into EEPROM
 986 0003f2  21 00 20 					mov		#speed_save,w1				; location
 987 0003f4  00 00 02 					call	eeprom_write
 987         00 00 00 
 988              	
 989 0003f8  00 00 37 					bra		skip_IR
 990              	
 991              	func_jump:		;---------------------------------
 992 0003fa  00 00 88 					mov		w0,mode_num
 993 0003fc  00 00 37 					bra		mode_change
 994              	
 995              	func_dimm:		;---------------------------------
 996 0003fe  05 00 AA 					btg		g_flags,#dimmed1			; rotate between 01,11,00 (dimmed2 dimmed1)
 997 000400  05 00 AE 					btss	g_flags,#dimmed1
 998 000402  05 20 AA 					btg		g_flags,#dimmed2
 999 000404  05 20 AF 					btsc	g_flags,#dimmed2
 1000 000406  05 00 AA 					btg		g_flags,#dimmed1
 1001 000408  00 00 37 					bra		skip_IR
 1002              	
 1003              	func_reset:		;---------------------------------
 1004 00040a  E0 FF 27 					mov		#speed_norm,w0				; set update_rate to the midway point
 1005 00040c  00 00 88 					mov		w0,update_rate				; write the new value into EEPROM
 1006 00040e  21 00 20 					mov		#speed_save,w1				; location -> w1
 1007 000410  00 00 02 					call	eeprom_write
 1007         00 00 00 
 1008              	
 1009 000414  05 00 A9 					bclr	g_flags,#dimmed1			; reset dimming level
 1010 000416  05 20 A9 					bclr	g_flags,#dimmed2
 1011              	
 1012 000418  00 20 EF 					clr		mode_num					; mode_num = 0
 1013 00041a  00 00 37 					bra		mode_change
 1014              	
 1015              					;---------------------------------
 1016              	skip_IR:											; }
 1017              	
 1018              	
 1019              					;--- button services ---------------------------------
 1020 00041c  00 00 02 					call	button_check				; check the button states
 1020         00 00 00 
 1021              	
MPLAB ASM30 Listing:  aurora9x18mk2.s 			page 24
Aurora main engine

 1022 000420  46 20 AF 					btsc	btnA_data,#btn_long			; if button long pushed
 1023 000422  00 00 37 					bra		power_down					; power down
 1024              	
 1025 000424  46 40 AE 					btss	btnA_data,#btn_push			; if button pushed
 1026 000426  00 00 37 					bra		0f
 1027 000428  46 40 A9 					bclr	btnA_data,#btn_push			; clear the button flag
 1028 00042a  00 20 EC 					inc		mode_num					; go to next mode
 1029              	mode_change:
 1030 00042c  00 E0 A9 					bclr	IEC0,#T2IE					; disable timer2 int for PWM
 1031 00042e  00 60 FE 	1:				clrwdt
 1032 000430  00 E0 AE 					btss	IFS0,#T2IF					; wait until TMR2 overflow
 1033 000432  00 00 37 					bra		1b
 1034              	
 1035 000434  00 00 80 					mov		mode_num,w0					; write the new mode into EEPROM
 1036 000436  01 00 20 					mov		#mode_save,w1				; location -> w1
 1037 000438  00 00 02 					call	eeprom_write
 1037         00 00 00 
 1038              	
 1039 00043c  00 60 FE 					clrwdt
 1040 00043e  00 A0 A9 					bclr	RCON,#SWDTEN				; disable WDT
 1041              	
 1042 000440  00 00 37 					bra		startup
 1043              	0:
 1044              	
 1045              	animate:		;--- animate LEDs ------------------------------------
 1046 000442  04 60 AE 					btss	g_flags,#analog				; if analog mode
 1047 000444  00 00 37 					bra		0f
 1048 000446  00 00 02 					call	analog_input				;   process A/D samples
 1048         00 00 00 
 1049 00044a  00 00 37 					bra		1f							;   skip update_cnt (animate at the max rate)
 1050              	0:
 1051 00044c  00 00 80 					mov		update_rate,w0
 1052 00044e  4E 20 B4 					add		update_cnt
 1053 000450  00 00 39 					bra		NC,main_loop				; skip update if update_cnt <= 0xFFFF
 1054              	1:
 1055 000452  C2 00 E2 					cp0		preprocess					; if preprocess is set
 1056 000454  00 00 32 					bra		Z,0f
 1057 000456  00 00 80 					mov		preprocess,w0
 1058 000458  00 00 01 					call	w0							;   do the preprocess
 1059              	0:
 1060 00045a  04 20 AF 					btsc	g_flags,#HSV_mode			; if HSV mode
 1061 00045c  00 00 37 					bra		animate_HSV
 1062              	
 1063              	animate_RGB:
 1064 00045e  04 00 A8 					bset	g_flags,#do_not_read		; disable LED data read
 1065              	
 1066 000460  01 00 20 					mov		#anim_params_R,w1			; w1 -> anim_params_R
 1067 000462  02 00 20 					mov		#LED_data_R,w2				; w2 -> LED_data_R
 1068 000464  00 00 02 					call	animate_LED
 1068         00 00 00 
 1069              	
 1070 000468  01 00 20 					mov		#anim_params_G,w1			; w1 -> anim_params_G
 1071 00046a  02 00 20 					mov		#LED_data_G,w2				; w2 -> LED_data_G
 1072 00046c  00 00 02 					call	animate_LED
 1072         00 00 00 
 1073              	
 1074 000470  01 00 20 					mov		#anim_params_B,w1			; w1 -> anim_params_B
MPLAB ASM30 Listing:  aurora9x18mk2.s 			page 25
Aurora main engine

 1075 000472  02 00 20 					mov		#LED_data_B,w2				; w2 -> LED_data_B
 1076 000474  00 00 02 					call	animate_LED
 1076         00 00 00 
 1077              	
 1078 000478  04 00 A9 					bclr	g_flags,#do_not_read		; enable LED data read
 1079              	
 1080 00047a  00 00 37 					bra		main_loop
 1081              	
 1082              	animate_HSV:
 1083 00047c  01 00 20 					mov		#anim_params_R,w1			; w1 -> anim_params_R
 1084 00047e  02 00 20 					mov		#LED_data_H,w2				; w2 -> LED_data_H
 1085 000480  00 00 02 					call	animate_LED
 1085         00 00 00 
 1086              	
 1087 000484  01 00 20 					mov		#anim_params_G,w1			; w1 -> anim_params_G
 1088 000486  02 00 20 					mov		#LED_data_S,w2				; w2 -> LED_data_S
 1089 000488  00 00 02 					call	animate_LED
 1089         00 00 00 
 1090              	
 1091 00048c  01 00 20 					mov		#anim_params_B,w1			; w1 -> anim_params_B
 1092 00048e  02 00 20 					mov		#LED_data_V,w2				; w2 -> LED_data_V
 1093 000490  00 00 02 					call	animate_LED
 1093         00 00 00 
 1094              	
 1095 000494  00 00 02 					call	convert_HSV
 1095         00 00 00 
 1096              	
 1097 000498  00 00 37 					bra		main_loop
 1098              	
 1099              	;--- end of main loop --------------------------------------------------------------------
 1100              	
 1101              	;-----------------------------------------------------------------------------------------
 1102              	
 1103              	;-------------------------------------------------------------------------------
 1104              	;	analog mode LED animation
 1105              	;
 1106              	analog_LED1:
 1107              	.equ	adc_floor_R,264	; 266 low level threshold
 1108              	.equ	adc_step_R,35*18/num_LEDs	; 35 steps per LED (smaller -> more sensitive)
 1109              	.equ	adc_floor_G,287	; 287
 1110              	.equ	adc_step_G,45*18/num_LEDs	; 45
 1111              	.equ	adc_floor_B,404	; 404
 1112              	.equ	adc_step_B,65*18/num_LEDs	; 65
 1113              	
 1114              					;--- R ---
 1115 00049a  02 00 20 					mov		#LED_data_R,w2				; w2 -> LED_data_R
 1116 00049c  23 01 20 					mov		#LED_data_R+(num_LEDs*2),w3	; w3 is loop stopper
 1117              	
 1118 00049e  20 0C 20 					mov		#adc_floor_R-adc_step_R,w0	; value - (adc_floor - adc_step)
 1119 0004a0  36 00 B5 					sub		analog_val1,wreg			; use slowest decay
 1120              	1:													; while (w2 < w3) {
 1121 0004a2  F1 0F 20 					mov		#max_duty,w1
 1122 0004a4  60 04 B1 					sub		#adc_step_R,w0				; 	value - adc_step
 1123 0004a6  00 00 3B 					bra		NN,2f						; 	if (w0 < 0)
 1124 0004a8  80 80 40 					add		w1,w0,w1					; 	  w1 = max_duty + w0
 1125 0004aa  00 00 37 					bra		3f							; 	else
 1126 0004ac  80 80 50 	2:				sub		w1,w0,w1					; 	  w1 = max_duty - w0
MPLAB ASM30 Listing:  aurora9x18mk2.s 			page 26
Aurora main engine

 1127 0004ae  00 00 3B 	3:				bra		NN,0f						; 	if (w1 < 0)
 1128 0004b0  80 00 EB 					clr		w1							; 	  w1 = 0
 1129 0004b2  01 19 78 	0:				mov		w1,[w2++]					; 	result -> LED_data
 1130 0004b4  03 90 E7 					cpseq	w2,w3
 1131 0004b6  00 00 37 					bra		1b							; } end while
 1132              	
 1133              					;--- G ---
 1134 0004b8  23 01 20 					mov		#LED_data_G+(num_LEDs*2),w3	; w3 is loop stopper
 1135              	
 1136 0004ba  50 0C 20 					mov		#adc_floor_G-adc_step_G,w0	; value - (adc_floor - adc_step)
 1137 0004bc  38 00 B5 					sub		analog_val2,wreg			; use mid decay
 1138              	1:													; while (w2 < w3) {
 1139 0004be  F1 0F 20 					mov		#max_duty,w1
 1140 0004c0  A0 05 B1 					sub		#adc_step_G,w0				; 	value - adc_step
 1141 0004c2  00 00 3B 					bra		NN,2f						; 	if (w0 < 0)
 1142 0004c4  80 80 40 					add		w1,w0,w1					; 	  w1 = max_duty + w0
 1143 0004c6  00 00 37 					bra		3f							; 	else
 1144 0004c8  80 80 50 	2:				sub		w1,w0,w1					; 	  w1 = max_duty - w0
 1145 0004ca  00 00 3B 	3:				bra		NN,0f						; 	if (w1 < 0)
 1146 0004cc  80 00 EB 					clr		w1							; 	  w1 = 0
 1147 0004ce  01 19 78 	0:				mov		w1,[w2++]					; 	result -> LED_data
 1148 0004d0  03 90 E7 					cpseq	w2,w3
 1149 0004d2  00 00 37 					bra		1b							; } end while
 1150              	
 1151              					;--- B ---
 1152 0004d4  23 01 20 					mov		#LED_data_B+(num_LEDs*2),w3	; w3 is loop stopper
 1153              	
 1154 0004d6  20 11 20 					mov		#adc_floor_B-adc_step_B,w0	; value - (adc_floor - adc_step)
 1155 0004d8  3A 00 B5 					sub		analog_val3,wreg			; use fast decay
 1156              	1:													; while (w2 < w3) {
 1157 0004da  F1 0F 20 					mov		#max_duty,w1
 1158 0004dc  20 08 B1 					sub		#adc_step_B,w0				; 	value - adc_step
 1159 0004de  00 00 3B 					bra		NN,2f						; 	if (w0 < 0)
 1160 0004e0  80 80 40 					add		w1,w0,w1					; 	  w1 = max_duty + w0
 1161 0004e2  00 00 37 					bra		3f							; 	else
 1162 0004e4  81 00 78 	2:				mov		w1,w1						; 	  w1 = max_duty
 1163              	;2:				sub		w1,w0,w1					; 	  w1 = max_duty - w0
 1164 0004e6  00 00 3B 	3:				bra		NN,0f						; 	if (w1 < 0)
 1165 0004e8  80 00 EB 					clr		w1							; 	  w1 = 0
 1166 0004ea  01 19 78 	0:				mov		w1,[w2++]					; 	result -> LED_data
 1167 0004ec  03 90 E7 					cpseq	w2,w3
 1168 0004ee  00 00 37 					bra		1b							; } end while
 1169              	
 1170 0004f0  00 00 06 					return
 1171              	
 1172              	;- - - - - - - - - - - - - - - - - - - - - - - - - - - - - - - - - - -
 1173              	;	
 1174              	
 1175              	analog_LED2:
 1176              	.equ	adc_floor_V,264	; low level threshold
 1177              	.equ	adc_step_V,35*18/num_LEDs	; steps per LED (smaller -> more sensitive)
 1178              	.equ	adc_floor_H,300	; 
 1179              	.equ	adc_step_H,10	; 
 1180              	.equ	adc_floor_S,10	; 
 1181              	.equ	adc_step_S,1	; 
 1182              	
 1183              					;--- V ---
MPLAB ASM30 Listing:  aurora9x18mk2.s 			page 27
Aurora main engine

 1184 0004f2  02 00 20 					mov		#LED_data_V,w2				; w2 -> LED_data_V
 1185 0004f4  23 01 20 					mov		#LED_data_V+(num_LEDs*2),w3	; w3 is loop stopper
 1186              	
 1187 0004f6  20 0C 20 					mov		#adc_floor_V-adc_step_V,w0	; value - (adc_floor - adc_step)
 1188 0004f8  36 00 B5 					sub		analog_val1,wreg			; use slowest decay
 1189              	1:													; while (w2 < w3) {
 1190 0004fa  F1 0F 20 					mov		#max_duty,w1
 1191 0004fc  60 04 B1 					sub		#adc_step_V,w0				; 	value - adc_step
 1192 0004fe  00 00 3B 					bra		NN,2f						; 	if (w0 < 0)
 1193 000500  80 80 40 					add		w1,w0,w1					; 	  w1 = max_duty + w0
 1194 000502  00 00 37 					bra		3f							; 	else
 1195 000504  81 00 78 	2:				mov		w1,w1						; 	  w1 = max_duty
 1196 000506  00 00 3B 	3:				bra		NN,0f						; 	if (w1 < 0)
 1197 000508  80 00 EB 					clr		w1							; 	  w1 = 0
 1198 00050a  01 19 78 	0:				mov		w1,[w2++]					; 	result -> LED_data
 1199 00050c  03 90 E7 					cpseq	w2,w3
 1200 00050e  00 00 37 					bra		1b							; } end while
 1201              	
 1202              					;--- H ---
 1203 000510  02 00 20 					mov		#LED_data_H,w2				; w2 -> LED_data_H
 1204 000512  23 01 20 					mov		#LED_data_H+(num_LEDs*2),w3	; w3 is loop stopper
 1205              	
 1206 000514  20 12 20 					mov		#adc_floor_H-adc_step_H,w0	; value - (adc_floor - adc_step)
 1207 000516  36 00 B5 					sub		analog_val1,wreg			; use slowest decay
 1208              	;				sub		analog_avg2,wreg			; use slow average
 1209 000518  F1 0F 20 					mov		#max_duty,w1
 1210              	1:													; while (w2 < w3) {
 1211 00051a  A0 00 B1 					sub		#adc_step_H,w0				; 	value - adc_step
 1212 00051c  00 00 3B 					bra		NN,2f						; 	if (w0 < 0)
 1213 00051e  00 82 40 					add		w1,w0,w4					; 	  w4 = max_duty + w0
 1214 000520  00 00 37 					bra		3f							; 	else
 1215 000522  00 82 50 	2:				sub		w1,w0,w4					; 	  w4 = max_duty - w0
 1216 000524  00 00 3B 	3:				bra		NN,0f						; 	if (w4 < 0) {
 1217 000526  04 02 EA 					neg		w4,w4						; 	  w4 = -w4
 1218              	0:													;   }
 1219 000528  44 20 EC 					inc		an_offset					;   increase offset value
 1220 00052a  05 00 80 					mov		an_offset,w5				;   add offset to hue
 1221 00052c  C8 2A DE 					lsr		w5,#8,w5
 1222 00052e  05 02 42 					add		w4,w5,w4
 1223 000530  F4 0F B2 					and		#0xFF,w4					;   use lower 8 bits only
 1224 000532  66 22 B8 					mul.uu	w4,#6,w4					;   w4 *= 6
 1225 000534  04 19 78 					mov		w4,[w2++]					; 	result -> LED_data
 1226 000536  03 90 E7 					cpseq	w2,w3
 1227 000538  00 00 37 					bra		1b							; } end while
 1228              	
 1229              					;--- S ---
 1230 00053a  02 00 20 					mov		#LED_data_S,w2				; w2 -> LED_data_S
 1231 00053c  F0 0F 20 					mov		#0xFF,w0					; fill with 0xFF
 1232 00053e  09 00 FC 					disi	#num_LEDs
 1233 000540  08 00 09 					repeat	#num_LEDs-1
 1234 000542  00 19 78 					mov		w0,[w2++]
 1235              	
 1236              	;				call	convert_HSV
 1237              	
 1238 000544  00 00 06 					return
 1239              	
 1240              	;- - - - - - - - - - - - - - - - - - - - - - - - - - - - - - - - - - -
MPLAB ASM30 Listing:  aurora9x18mk2.s 			page 28
Aurora main engine

 1241              	; analog_LED1 with peak detection
 1242              	;
 1243              	analog_LED3:
 1244              	.equ	peak_thres_h,580 ; 680
 1245              	.equ	peak_thres_l,500 ; 580
 1246              	.equ	peak_reset,64		; threshold to reset the peak effect
 1247              	
 1248              	
 1249 000546  04 00 A8 					bset	g_flags,#do_not_read		; disable LED data read
 1250 000548  00 00 02 					call	analog_LED1
 1250         00 00 00 
 1251              	
 1252              					;--- color change on the beat ---
 1253 00054c  04 80 AE 					btss	g_flags,#an_peak			; if peak was detected before
 1254 00054e  00 00 37 					bra		1f
 1255 000550  00 00 80 					mov		analog_val1,w0				; 	wait until the value goes below the threshold
 1256 000552  41 1F 20 					mov		#peak_thres_l,w1
 1257 000554  01 00 E1 					cp		w0,w1						; 	analog_val - peak_thres_l
 1258 000556  00 00 3E 					bra		GTU,0f						;	below the threshold
 1259 000558  04 80 A9 					bclr	g_flags,#an_peak			; 	  clear the flag
 1260              	
 1261 00055a  00 00 80 	1:				mov		analog_val1,w0
 1262 00055c  41 24 20 					mov		#peak_thres_h,w1
 1263 00055e  01 00 E1 					cp		w0,w1						; analog_val - peak_thres_h
 1264 000560  00 00 39 					bra		LTU,0f						; peak detected
 1265 000562  42 20 EC 					inc		an_peak_cnt					; count the peak/beats
 1266 000564  C0 5D 20 					mov		#1500,w0					; set the reset timer
 1267 000566  00 00 88 					mov		w0,an_peak_time
 1268 000568  04 80 A8 					bset	g_flags,#an_peak			; set the flag
 1269              	0:
 1270 00056a  00 00 80 					mov		analog_val1,w0
 1271 00056c  01 04 20 					mov		#peak_reset,w1
 1272 00056e  01 00 E1 					cp		w0,w1						; analog_val - peak_reset
 1273 000570  00 00 3E 					bra		GTU,0f						; if the level goes below the reset threshold
 1274 000572  40 20 ED 					dec		an_peak_time				; decrement the timer
 1275 000574  00 00 3A 					bra		NZ,0f						; if timer = 0
 1276 000576  42 20 EF 					clr		an_peak_cnt					;   clear peak count
 1277              	0:
 1278 000578  42 00 AF 					btsc	an_peak_cnt,#0
 1279 00057a  00 00 02 					call	swap_R_B
 1279         00 00 00 
 1280 00057e  42 20 AF 					btsc	an_peak_cnt,#1
 1281 000580  00 00 02 					call	swap_R_G
 1281         00 00 00 
 1282 000584  42 40 AF 					btsc	an_peak_cnt,#2
 1283 000586  00 00 02 					call	swap_G_B
 1283         00 00 00 
 1284              	
 1285 00058a  04 00 A9 					bclr	g_flags,#do_not_read		; enable LED data read
 1286 00058c  00 00 06 					return
 1287              	
 1288              	;- - - - - - - - - - - - - - - - - - - -
 1289              	; swap R/G/B channel data
 1290              	swap_R_G:
 1291 00058e  01 00 20 					mov		#LED_data_R,w1
 1292 000590  02 00 20 					mov		#LED_data_G,w2
 1293 000592  00 00 37 					bra		1f
MPLAB ASM30 Listing:  aurora9x18mk2.s 			page 29
Aurora main engine

 1294              	swap_R_B:
 1295 000594  01 00 20 					mov		#LED_data_R,w1
 1296 000596  02 00 20 					mov		#LED_data_B,w2
 1297 000598  00 00 37 					bra		1f
 1298              	swap_G_B:
 1299 00059a  01 00 20 					mov		#LED_data_G,w1
 1300 00059c  02 00 20 					mov		#LED_data_B,w2
 1301              	1:
 1302 00059e  82 01 78 					mov		w2,w3
 1303 0005a0  23 01 B0 					add		#num_LEDs*2,w3				; w3 is loop stopper
 1304              	0:												; while (w2 < w3) {
 1305 0005a2  12 00 78 					mov		[w2],w0
 1306 0005a4  11 19 78 					mov		[w1],[w2++]
 1307 0005a6  80 18 78 					mov		w0,[w1++]
 1308 0005a8  03 90 E7 					cpseq	w2,w3
 1309 0005aa  00 00 37 					bra		0b						; } end while
 1310 0005ac  00 00 06 					return
 1311              	
 1312              	
 1313              	;-------------------------------------------------------------------------------
 1314              	;	process analog input
 1315              	;		slow decay on analog_val1,analog_val2, and analog_val3
 1316              	;
 1317              	.equ	adc_floor,32	; ADC noise/offset level
 1318              	analog_input:
 1319 0005ae  01 A0 AE 					btss	IFS0,#AD1IF					; return if conversion is not done
 1320 0005b0  00 00 06 					return
 1321              	
 1322 0005b2  01 A0 A9 					bclr	IFS0,#AD1IF					; clear the DONE flag
 1323 0005b4  00 20 A8 					bset	AD1CON1,#SAMP				; start sampling analog input
 1324              	
 1325 0005b6  00 00 80 					mov		ADC1BUF0,w0					; w0 = ADC value
 1326              	
 1327              					; store the ADC value in the buffer
 1328 0005b8  01 00 20 					mov		#analog_buf1,w1
 1329 0005ba  02 00 80 					mov		analog_ptr1,w2
 1330 0005bc  80 30 79 					mov		w0,[w1+w2]
 1331 0005be  22 A0 EC 					inc2	analog_ptr1
 1332 0005c0  E3 00 20 					mov		#(ana_samples1-1)*2,w3		; if the pointer points outside buffer
 1333 0005c2  03 10 E1 					cp		w2,w3
 1334 0005c4  00 00 AF 					btsc	SR,#C
 1335 0005c6  22 20 EF 					clr		analog_ptr1					; 	roll back
 1336              	
 1337              					; average all samples
 1338 0005c8  00 01 EB 					clr		w2
 1339 0005ca  08 00 FC 					disi	#ana_samples1
 1340 0005cc  07 00 09 					repeat	#ana_samples1-1
 1341 0005ce  31 01 41 					add		w2,[w1++],w2				; w2 = sum(analog_buf1)
 1342 0005d0  43 11 DE 					lsr		w2,#ana_devbit1,w2			; divide by n
 1343 0005d2  02 02 B1 					sub		#adc_floor,w2				; adjust the noise offset
 1344 0005d4  00 60 AF 					btsc	SR,#N
 1345 0005d6  00 01 EB 					clr		w2
 1346 0005d8  02 00 88 					mov		w2,analog_avg1
 1347              	
 1348              	.if 0			;--- long average ---
 1349              					;--- store the average value in the buffer ---
 1350              					mov		#analog_buf2,w1
MPLAB ASM30 Listing:  aurora9x18mk2.s 			page 30
Aurora main engine

 1351              					mov		analog_ptr2,w2
 1352              					mov		w0,[w1+w2]
 1353              					cp0		analog_ptr1					; advance the pointer only every #ana_samples samples
 1354              					bra		NZ,0f
 1355              					inc2	analog_ptr2
 1356              					mov		#(ana_samples2-1)*2,w3		; if the pointer points outside buffer
 1357              					cp		w2,w3
 1358              					btsc	SR,#C
 1359              					clr		analog_ptr2					; 	roll back
 1360              	0:
 1361              					; average all samples
 1362              					clr		w2
 1363              					disi	#ana_samples2
 1364              					repeat	#ana_samples2-1
 1365              					add		w2,[w1++],w2				; w2 = sum(analog_buf2)
 1366              					lsr		w2,#ana_devbit2,w2			; divide by n
 1367              					sub		#adc_floor,w2				; adjust the noise offset
 1368              					btsc	SR,#N
 1369              					clr		w2
 1370              					mov		w2,analog_avg2
 1371              	.endif
 1372              					;--- process other values ----------------------------
 1373 0005da  00 00 80 					mov		analog_avg1,w0				; use short average value
 1374              	
 1375              					;--- apply knee ---
 1376              	.equ	ana_knee_point,400
 1377 0005dc  01 19 20 					mov		#ana_knee_point,w1			; if (w0 > knee_point)
 1378 0005de  01 00 E1 					cp		w0,w1
 1379 0005e0  00 00 35 					bra		LT,0f						; {
 1380 0005e2  01 00 40 					add		w0,w1,w0					;   w0 = (w0 + knee_point)/2
 1381 0005e4  00 00 D1 					lsr		w0,w0
 1382              	0:													; }
 1383 0005e6  F1 3F 20 					mov		#(1<<10)-1,w1				; if (w0 > 0x3FF)
 1384 0005e8  01 00 E1 					cp		w0,w1
 1385 0005ea  00 00 36 					bra		LEU,0f						; {
 1386 0005ec  01 00 78 					mov		w1,w0						;   w0 = 0x3FF (limit the value within 10 bit)
 1387              	0:													; }
 1388              					;--- analog value with slow decay ----------
 1389 0005ee  36 00 E3 					cp		analog_val1					; if (analog_val < analog_val1)
 1390 0005f0  00 00 34 					bra		LE,0f
 1391 0005f2  36 20 ED 					dec		analog_val1					;   analog_val1--
 1392 0005f4  00 00 37 					bra		1f							; else
 1393 0005f6  00 00 88 	0:				mov		w0,analog_val1				;   analog_val1 = analog_val
 1394              	1:
 1395 0005f8  05 60 A9 					bclr	g_flags,#no_LED				; set no_LED flag if value is zero
 1396 0005fa  36 00 E2 					cp0		analog_val1
 1397 0005fc  00 20 AF 					btsc	SR,#Z
 1398 0005fe  05 60 A8 					bset	g_flags,#no_LED
 1399              	
 1400              					;--- analog value with mid decay -----------
 1401 000600  38 00 E3 					cp		analog_val2					; if (analog_val < analog_val2)
 1402 000602  00 00 34 					bra		LE,0f
 1403 000604  38 A0 ED 					dec2	analog_val2					;   analog_val2--
 1404 000606  38 00 E3 					cp		analog_val2					;   if (analog_val > analog_val2)
 1405 000608  00 00 3C 					bra		GT,1f						;      analog_val2 = analog_val
 1406              														; else
 1407 00060a  00 00 88 	0:				mov		w0,analog_val2				;   analog_val2 = analog_val
MPLAB ASM30 Listing:  aurora9x18mk2.s 			page 31
Aurora main engine

 1408              	1:
 1409              					;--- analog value with fast decay ----------
 1410 00060c  3A 00 E3 					cp		analog_val3					; if (analog_val < analog_val3) {
 1411 00060e  00 00 34 					bra		LE,0f
 1412 000610  3A A0 ED 					dec2	analog_val3					;   analog_val3 -= 2
 1413 000612  3A 00 E3 					cp		analog_val3					;   if (analog_val > analog_val3)
 1414 000614  00 00 34 					bra		LE,0f						;      analog_val3 = analog_val
 1415 000616  3A A0 ED 					dec2	analog_val3					;   analog_val3 -= 2
 1416 000618  3A 00 E3 					cp		analog_val3					;   if (analog_val > analog_val3)
 1417 00061a  00 00 3C 					bra		GT,1f						;      analog_val3 = analog_val
 1418              														; } else
 1419 00061c  00 00 88 	0:				mov		w0,analog_val3				;   analog_val3 = analog_val
 1420              	1:
 1421 00061e  00 00 06 					return
 1422              	
 1423              	
 1424              	;-------------------------------------------------------------------------------
 1425              	;	button check
 1426              	
 1427              	button_check:
 1428              					;--- sample all buttons ---
 1429 000620  00 00 80 					mov		SW1_PORT,w0
 1430 000622  00 00 A3 					btst.c	w0,#SW1_BIT
 1431 000624  48 A0 D6 					rlc		btnA_data+samples			; add new sample at LSB
 1432              	
 1433 000626  01 00 20 					mov		#btnA_data,w1
 1434 000628  00 00 02 					call	check_one_button			; process one switch at a time
 1434         00 00 00 
 1435              	
 1436 00062c  00 00 06 					return
 1437              	
 1438              					;- - - - - - - - - - - - - - - - - - - - - - - - - - - - - -
 1439              	check_one_button:
 1440              					;--- process the button data ---
 1441 00062e  11 00 A7 					btsc	[w1],#btn_down		; is the button up or down?
 1442 000630  00 00 37 					bra		button_down
 1443              	
 1444              	button_up:		;--- test if the button is down ---
 1445 000632  F0 FF 2F 					mov		#debounce_bits,w0
 1446 000634  11 01 90 					mov		[w1+samples],w2
 1447 000636  02 01 60 					and		w0,w2,w2					; if all samples are low
 1448 000638  00 00 3A 					bra		NZ,0f
 1449 00063a  11 00 A0 					bset	[w1],#btn_down				; button is now down
 1450 00063c  00 0F 20 					mov		#long_push_time,w0			; set the long push counter
 1451 00063e  A0 00 98 					mov		w0,[w1+long_push]
 1452 000640  00 00 06 	0:				return
 1453              	
 1454              	button_down:	;--- test if the button is up ---
 1455 000642  F0 FF 2F 					mov		#debounce_bits,w0
 1456 000644  11 01 90 					mov		[w1+samples],w2
 1457 000646  02 01 60 					and		w0,w2,w2					; if all samples are low
 1458 000648  00 01 69 					xor		w2,w0,w2					; if all samples are high
 1459 00064a  00 00 3A 					bra		NZ,button_held
 1460 00064c  11 00 A1 					bclr	[w1],#btn_down				; button is now up
 1461 00064e  11 20 A0 					bset	[w1],#btn_push				; button has been pushed
 1462 000650  00 00 06 					return
 1463              	
MPLAB ASM30 Listing:  aurora9x18mk2.s 			page 32
Aurora main engine

 1464              	button_held:
 1465 000652  64 81 40 					add		w1,#long_push,w2
 1466 000654  12 09 E9 					dec		[w2],[w2]					; decrement long push counter
 1467 000656  00 00 32 					bra		Z,0f
 1468 000658  00 00 06 					return
 1469 00065a  11 10 A0 	0:				bset	[w1],#btn_long				; button is now long pushed
 1470 00065c  00 0F 20 					mov		#long_push_time,w0			; set the long push counter
 1471 00065e  A0 00 98 					mov		w0,[w1+long_push]
 1472 000660  00 00 06 					return
 1473              	
 1474              	;-------------------------------------------------------------------------------
 1475              	;	animate LEDs
 1476              	;
 1477              	;	register usage: 
 1478              	;		w5 = anim_release_cnt_X
 1479              	;		w6 = anim_flags_X
 1480              	;		w14 = max_duty
 1481              	;		w7 = max_duty - duty_diff_X
 1482              	;		w8 = duty_diff_X
 1483              	;		w9,w10,w11,w12,w13
 1484              	
 1485              	animate_LED:
 1486 000662  60 80 40 					add		w1,#anim_delay,w0
 1487 000664  10 00 E0 					cp0		[w0]						; check delay
 1488 000666  00 00 32 					bra		Z,0f
 1489 000668  10 08 E9 					dec		[w0],[w0]
 1490 00066a  00 00 06 					return
 1491              	0:
 1492 00066c  41 00 90 					mov		[w1+#anim_update_rate],w0
 1493 00066e  EA 81 40 					add		w1,#anim_update,w3
 1494 000670  93 09 40 					add		w0,[w3],[w3]				; update_X += update_rate_X
 1495 000672  00 00 31 					bra		C,0f						; skip update if update_X <= 0xFFFF
 1496 000674  00 00 06 					return
 1497              	0:
 1498              					;--- prepare for LED loop --------
 1499 000676  82 04 78 					mov		w2,w9						; w9 -> LED_data_X
 1500 000678  00 01 20 					mov		#(2*(num_LEDs-1)),w0
 1501 00067a  80 05 41 					add		w2,w0,w11					; w11 -> last LED_data_X
 1502              	
 1503 00067c  21 06 90 					mov		[w1+#anim_step_up],w12
 1504 00067e  B1 06 90 					mov		[w1+#anim_step_down],w13
 1505              	
 1506 000680  11 04 90 					mov		[w1+#anim_duty_diff],w8		; w8 = duty_diff_X
 1507 000682  61 07 90 					mov		[w1+#anim_max_duty],w14		; w14 = max_duty
 1508 000684  88 03 57 					sub		w14,w8,w7					; w7 = max_duty - duty_diff_X
 1509              	
 1510 000686  11 0B 90 					mov		[w1+#anim_flags],w6
 1511 000688  06 00 A7 					btsc	w6,#af_direction			; if (af_direction = 0) {
 1512 00068a  00 00 37 					bra		1f
 1513 00068c  62 05 41 					add		w2,#2,w10					;   LED_data_#2 -> w10
 1514 00068e  00 00 37 					bra		2f							; } else {
 1515 000690  0B 05 78 	1:				mov		w11,w10						;   last LED_data_X -> w10
 1516              	2:													; }
 1517              	
 1518 000692  F4 82 40 					add		w1,#anim_release_cnt,w5		; w5 -> release_cnt_X
 1519              	
 1520              	LED_loop:		;--- LED x loop ----------------------------
MPLAB ASM30 Listing:  aurora9x18mk2.s 			page 33
Aurora main engine

 1521 000694  F0 FF 23 					mov		#(0xFFFF-1<<DUTY_DIR-1<<DUTY_HOLD),w0
 1522 000696  19 00 60 					and		w0,[w9],w0					; mask flag bits and copy LED_data_Xn -> w0		
 1523              	
 1524 000698  19 F0 A6 					btss	[w9],#DUTY_HOLD				; if DUTY_HOLD set
 1525 00069a  00 00 37 					bra		1f							; {
 1526 00069c  95 0A E9 					dec		[w5],[w5]					;   if (--release_cnt_X != 0)
 1527 00069e  00 00 3A 					bra		NZ,2f						;     continue to the next LED
 1528 0006a0  19 F0 A1 					bclr	[w9],#DUTY_HOLD				;   else clear DUTY_HOLD
 1529              	1:													; }
 1530 0006a2  19 E0 A7 					btsc	[w9],#DUTY_DIR				; duty up or down?
 1531 0006a4  00 00 37 					bra		LED_rampDown
 1532              	LED_rampUp:
 1533 0006a6  00 40 E7 					cpsne	w8,w0						; if LED_data_Xn = duty_diff_X
 1534 0006a8  1A F0 A1 					bclr	[w10],#DUTY_HOLD			; release DUTY_HOLD of next LED
 1535              	
 1536 0006aa  0C 00 40 					add		w0,w12,w0					; LED_data_Xn += step_up
 1537 0006ac  0E 00 E1 					cp		w0,w14						; 
 1538 0006ae  00 00 39 					bra		LTU,2f						; if (LED_data_Xn >= max_duty) {
 1539 0006b0  0E 00 78 					mov		w14,w0						;   LED_data_Xn = max_duty
 1540 0006b2  19 E0 A2 					btg		[w9],#DUTY_DIR				;   and toggle the dir flag
 1541 0006b4  06 10 A6 					btss	w6,#af_duty_hold_rs			;   if DUTY_HOLD_RS set {
 1542 0006b6  00 00 37 					bra		2f							; 
 1543 0006b8  19 F0 A0 					bset	[w9],#DUTY_HOLD				;     hold the fade
 1544 0006ba  F1 01 90 					mov		[w1+#anim_release_waitH],w3
 1545 0006bc  83 0A 78 					mov		w3,[w5]						;     reset anim_release_cnt_Xn
 1546 0006be  00 00 37 					bra		2f							;   }
 1547              														; }
 1548              	LED_rampDown:
 1549 0006c0  00 38 E7 					cpsne	w7,w0						; if LED_data_Xn = (max_duty - duty_diff_X)
 1550 0006c2  1A F0 A1 					bclr	[w10],#DUTY_HOLD			; release DUTY_HOLD of next LED
 1551              	
 1552 0006c4  0D 00 50 					sub		w0,w13,w0					; LED_data_Xn -= step_down
 1553 0006c6  00 00 31 					bra		C,2f						; if (LED_data_Xn <= 0) {
 1554 0006c8  00 00 EB 					clr		w0							;   LED_data_Xn = 0
 1555 0006ca  19 E0 A2 					btg		[w9],#DUTY_DIR				;   and toggle the dir flag
 1556 0006cc  06 10 A6 					btss	w6,#af_duty_hold_rs			;   if DUTY_HOLD_RS set {
 1557 0006ce  00 00 37 					bra		2f
 1558 0006d0  19 F0 A0 					bset	[w9],#DUTY_HOLD				;     hold the fade
 1559 0006d2  81 09 90 					mov		[w1+#anim_release_waitL],w3
 1560 0006d4  83 0A 78 					mov		w3,[w5]						;     reset anim_release_cnt_Xn
 1561              														;   }
 1562              														; }
 1563              	2:
 1564 0006d6  03 00 2C 					mov		#(1<<DUTY_DIR-1<<DUTY_HOLD),w3
 1565 0006d8  99 8C 61 					and		w3,[w9],[w9]				; keep only the flags
 1566 0006da  99 0C 70 					ior		w0,[w9],[w9]				; copy w0 -> LED_data_Xn
 1567 0006dc  0B 48 E7 					cpsne	w9,w11						; last one done?
 1568 0006de  00 00 06 					return								;   then return
 1569              	
 1570 0006e0  85 82 E8 					inc2	w5,w5						; else move on to next LED
 1571 0006e2  89 84 E8 					inc2	w9,w9
 1572 0006e4  0A 85 E8 					inc2	w10,w10
 1573 0006e6  0B 50 E6 					cpsgt	w10,w11						; if next LED > last LED
 1574 0006e8  00 00 37 					bra		LED_loop					; {
 1575 0006ea  02 05 78 					mov		w2,w10						;   LED_data_#1 -> w10
 1576 0006ec  00 00 37 					bra		LED_loop					; }
 1577              	
MPLAB ASM30 Listing:  aurora9x18mk2.s 			page 34
Aurora main engine

 1578              	;-------------------------------------------------------------------------------
 1579              	;	convert HSV data to RGB
 1580              	;
 1581              	convert_HSV:
 1582 0006ee  03 00 20 					mov		#LED_data_H,w3				; w3 -> LED_data_H
 1583 0006f0  07 00 20 					mov		#LED_data_R,w7				; w7 -> LED_data_R
 1584 0006f2  09 01 20 					mov		#LED_data_R+(num_LEDs-1)*2,w9	; w9 -> end of LED_data_R
 1585              	
 1586 0006f4  04 00 A8 					bset	g_flags,#do_not_read		; disable LED data read
 1587              	
 1588              	0:													; while (w7 != w9) {
 1589 0006f6  F0 FF 23 					mov		#(0xFFFF-1<<DUTY_DIR-1<<DUTY_HOLD),w0
 1590 0006f8  13 02 78 					mov		[w3],w4						;   H value -> w4
 1591 0006fa  04 02 60 					and		w0,w4,w4					;   mask the anim flags
 1592              	
 1593 0006fc  93 0A 90 					mov		[w3+num_LEDs*2],w5			;   S value -> w5
 1594 0006fe  85 02 60 					and		w0,w5,w5					;   mask the anim flags
 1595              	
 1596 000700  23 13 90 					mov		[w3+num_LEDs*4],w6			;   V value -> w6
 1597 000702  06 03 60 					and		w0,w6,w6					;   mask the anim flags
 1598              	
 1599 000704  00 00 02 					call	HSV2RGB						;   do HSV -> RGB conversion
 1599         00 00 00 
 1600 000708  09 38 E1 					cp		w7,w9
 1601 00070a  00 00 32 					bra		Z,1f
 1602 00070c  83 81 E8 					inc2	w3,w3
 1603 00070e  87 83 E8 					inc2	w7,w7
 1604 000710  00 00 37 					bra		0b							; }
 1605              	1:
 1606 000712  04 00 A9 					bclr	g_flags,#do_not_read		; enable LED data read
 1607              	
 1608 000714  00 00 06 					return
 1609              	
 1610              	;-------------------------------------------------------------------------------
 1611              	;	HSV -> RGB conversion
 1612              	;	takes:		H (0-255*6): w4
 1613              	;				S (0-255): w5
 1614              	;				V (0-255): w6
 1615              	;	returns:	R (0-255): [w7] (LED_data_Rx)
 1616              	;				G (0-255): [w7+num_LEDs*2] (LED_data_Gx)
 1617              	;				B (0-255): [w7+num_LEDs*4] (LED_data_Bx)
 1618              	
 1619              	HSV2RGB:
 1620 000716  05 00 E0 					cp0		w5							; if (S == 0) {
 1621 000718  00 00 3A 					bra		NZ,0f
 1622 00071a  86 0B 78 					mov		w6,[w7]						;   R = G = B = V
 1623 00071c  96 0B 98 					mov		w6,[w7+num_LEDs*2]
 1624 00071e  A6 13 98 					mov		w6,[w7+num_LEDs*4]
 1625 000720  00 00 06 					return
 1626              	0:													; } else {
 1627 000722  04 00 88 					mov		w4,var_H					;   var_H = H
 1628 000724  48 20 DE 					lsr		w4,#8,w0					;   var_I = var_H / 256
 1629 000726  00 00 88 					mov 	w0,var_I					;   var_I (0-5)
 1630 000728  48 00 DD 					sl		w0,#8,w0					;   var_H = var_H - var_I*256
 1631 00072a  BC 21 B5 					sub		var_H
 1632              	
 1633              														;   var_1 = V(256 - S)/256
MPLAB ASM30 Listing:  aurora9x18mk2.s 			page 35
Aurora main engine

 1634 00072c  00 10 20 					mov		#256,w0
 1635 00072e  05 00 50 					sub		w0,w5,w0					;   w0 = 256 - S
 1636 000730  06 00 B8 					mul.uu	w0,w6,w0					;   w1:w0 = V * w0
 1637 000732  48 00 DE 					lsr		w0,#8,w0					;   w0 = w0 / 256
 1638 000734  00 00 88 					mov		w0,var_1
 1639              	
 1640              														;   var_2 = V(256 - S(var_H)/256)/256
 1641 000736  00 00 80 					mov		var_H,w0
 1642 000738  05 00 B8 					mul.uu	w0,w5,w0					;   w0 = S * var_H
 1643 00073a  48 00 DE 					lsr		w0,#8,w0					;   w0 = w0 / 256
 1644 00073c  00 00 EA 					neg		w0,w0						;   w0 = 256 - w0
 1645 00073e  00 10 B0 					add		#256,w0
 1646 000740  06 00 B8 					mul.uu	w0,w6,w0					;   w1:w0 = V * w0
 1647 000742  48 00 DE 					lsr		w0,#8,w0					;   w0 = w0 / 256
 1648 000744  00 00 88 					mov		w0,var_2
 1649              	
 1650              														;   var_3 = V(256 - S(256 - var_H)/256)/256
 1651 000746  00 00 80 					mov		var_H,w0
 1652 000748  00 00 EA 					neg		w0,w0						;   w0 = 256 - var_H
 1653 00074a  00 10 B0 					add		#256,w0
 1654 00074c  05 00 B8 					mul.uu	w0,w5,w0					;   w0 = S * w0
 1655 00074e  48 00 DE 					lsr		w0,#8,w0					;   w0 = w0 / 256
 1656 000750  00 00 EA 					neg		w0,w0						;   w0 = 256 - w0
 1657 000752  00 10 B0 					add		#256,w0
 1658 000754  06 00 B8 					mul.uu	w0,w6,w0					;   w1:w0 = V * w0
 1659 000756  48 00 DE 					lsr		w0,#8,w0					;   w0 = w0 / 256
 1660 000758  00 00 88 					mov		w0,var_3
 1661              	
 1662 00075a  00 00 80 					mov		var_I,w0					;   switch (var_I)
 1663 00075c  00 60 01 					bra		w0
 1664 00075e  00 00 37 					bra		var_I0
 1665 000760  00 00 37 					bra		var_I1
 1666 000762  00 00 37 					bra		var_I2
 1667 000764  00 00 37 					bra		var_I3
 1668 000766  00 00 37 					bra		var_I4
 1669 000768  00 00 37 					bra		var_I5
 1670              	var_I0:
 1671 00076a  86 0B 78 					mov		w6,[w7]						; R = V
 1672 00076c  00 00 80 					mov		var_3,w0					; G = var_3
 1673 00076e  90 0B 98 					mov		w0,[w7+num_LEDs*2]
 1674 000770  00 00 80 					mov		var_1,w0					; B = var_1
 1675 000772  A0 13 98 					mov		w0,[w7+num_LEDs*4]
 1676 000774  00 00 06 					return
 1677              	var_I1:
 1678 000776  00 00 80 					mov		var_2,w0					; R = var_2
 1679 000778  80 0B 78 					mov		w0,[w7]
 1680 00077a  96 0B 98 					mov		w6,[w7+num_LEDs*2]			; G = V
 1681 00077c  00 00 80 					mov		var_1,w0					; B = var_1
 1682 00077e  A0 13 98 					mov		w0,[w7+num_LEDs*4]
 1683 000780  00 00 06 					return
 1684              	var_I2:
 1685 000782  00 00 80 					mov		var_1,w0					; R = var_1
 1686 000784  80 0B 78 					mov		w0,[w7]
 1687 000786  96 0B 98 					mov		w6,[w7+num_LEDs*2]			; G = V
 1688 000788  00 00 80 					mov		var_3,w0					; B = var_3
 1689 00078a  A0 13 98 					mov		w0,[w7+num_LEDs*4]
 1690 00078c  00 00 06 					return
MPLAB ASM30 Listing:  aurora9x18mk2.s 			page 36
Aurora main engine

 1691              	var_I3:
 1692 00078e  00 00 80 					mov		var_1,w0					; R = var_1
 1693 000790  80 0B 78 					mov		w0,[w7]
 1694 000792  00 00 80 					mov		var_2,w0					; G = var_2
 1695 000794  90 0B 98 					mov		w0,[w7+num_LEDs*2]
 1696 000796  A6 13 98 					mov		w6,[w7+num_LEDs*4]			; B = V
 1697 000798  00 00 06 					return
 1698              	var_I4:
 1699 00079a  00 00 80 					mov		var_3,w0					; R = var_3
 1700 00079c  80 0B 78 					mov		w0,[w7]
 1701 00079e  00 00 80 					mov		var_1,w0					; G = var_1
 1702 0007a0  90 0B 98 					mov		w0,[w7+num_LEDs*2]
 1703 0007a2  A6 13 98 					mov		w6,[w7+num_LEDs*4]			; B = V
 1704 0007a4  00 00 06 					return
 1705              	var_I5:
 1706 0007a6  86 0B 78 					mov		w6,[w7]						; R = V
 1707 0007a8  00 00 80 					mov		var_1,w0					; G = var_1
 1708 0007aa  90 0B 98 					mov		w0,[w7+num_LEDs*2]
 1709 0007ac  00 00 80 					mov		var_2,w0					; B = var_2
 1710 0007ae  A0 13 98 					mov		w0,[w7+num_LEDs*4]
 1711 0007b0  00 00 06 					return
 1712              														; } (endif)
 1713              	
 1714              	;===============================================================================
 1715              	;	PWM update service
 1716              	;
 1717              	__T2Interrupt:
 1718 0007b2  00 A0 FE 					push.s								; push w0 - w3 and status
 1719 0007b4  84 9F BE 					push.d	w4							; push w4,w5
 1720              	
 1721              					;--- RGB channel switch ------------------------------
 1722 0007b6  00 00 80 					mov		RGB,w0
 1723 0007b8  00 60 01 					bra		w0
 1724 0007ba  00 00 37 					bra		Blanking					; first time call only
 1725 0007bc  00 00 37 					bra		Ch_G
 1726 0007be  00 00 37 					bra		Ch_B
 1727 0007c0  30 21 EF 					clr		RGB		; catch
 1728              	
 1729              	Ch_R:			;--- R channel ---------------------------------------
 1730              					;--- set next PWM duty ---
 1731 0007c2  00 00 80 					mov		pulse_duration,w0
 1732 0007c4  05 60 AE 					btss	g_flags,#no_LED				; if no_LED flag clear
 1733 0007c6  00 00 88 					mov		w0,PWM_R_OC					; set the next OC1RS value
 1734              	
 1735              					;--- start single pulse generation on R ---
 1736 0007c8  40 C0 21 					mov		#OCCON_VAL,w0
 1737 0007ca  05 60 AE 					btss	g_flags,#no_LED				; if no_LED flag clear
 1738 0007cc  00 00 88 					mov		w0,PWM_R_OCC				;   set OC register
 1739              	
 1740              					;--- set PORTs -----------------------------
 1741 0007ce  00 00 80 					mov		port_buff,w0				; load next PORTA data into W
 1742 0007d0  11 00 80 					mov		port_buff+2,w1				; load next PORTB data into W
 1743              					
 1744              	.if (PORTA_bits>0)
 1745 0007d2  00 00 88 					mov		w0,LATA						; update PORTA LATCH
 1746 0007d4  01 00 88 					mov		w1,LATB						; update PORTB LATCH
 1747              	.else
MPLAB ASM30 Listing:  aurora9x18mk2.s 			page 37
Aurora main engine

 1748              					mov		w0,LATB						; update PORTB LATCH
 1749              					mov		w1,LATC						; update PORTC LATCH
 1750              	.endif
 1751              	
 1752              					;--- prepare PORT data for the next cycle --
 1753 0007d6  00 00 02 					call	update_ports_G
 1753         00 00 00 
 1754              	
 1755 0007da  00 00 37 					bra		RGB_done
 1756              	
 1757              	Ch_G:			;--- G channel ---------------------------------------
 1758              					;--- set next PWM duty ---
 1759 0007dc  00 00 80 					mov		pulse_duration,w0
 1760 0007de  05 60 AE 					btss	g_flags,#no_LED				; if no_LED flag clear
 1761 0007e0  00 00 88 					mov		w0,PWM_G_OC					; set the next OC3RS value
 1762              	
 1763              					;--- start single pulse generation on G ---
 1764 0007e2  40 C0 21 					mov		#OCCON_VAL,w0
 1765 0007e4  05 60 AE 					btss	g_flags,#no_LED				; if no_LED flag clear
 1766 0007e6  00 00 88 					mov		w0,PWM_G_OCC				;   set OC register
 1767              	
 1768              					;--- set PORTs -----------------------------
 1769 0007e8  00 00 80 					mov		port_buff,w0				; load next PORTA data into W
 1770 0007ea  11 00 80 					mov		port_buff+2,w1				; load next PORTB data into W
 1771              	.if (PORTA_bits>0)
 1772 0007ec  00 00 88 					mov		w0,LATA						; update PORTA LATCH
 1773 0007ee  01 00 88 					mov		w1,LATB						; update PORTB LATCH
 1774              	.else
 1775              					mov		w0,LATB						; update PORTB LATCH
 1776              					mov		w1,LATC						; update PORTC LATCH
 1777              	.endif
 1778              	
 1779              					;--- prepare PORT data for the next cycle --
 1780 0007f0  00 00 02 					call	update_ports_B
 1780         00 00 00 
 1781              	
 1782 0007f4  00 00 37 					bra		RGB_done
 1783              	
 1784              	Ch_B:			;--- B channel ---------------------------------------
 1785              					;--- set next PWM duty ---
 1786 0007f6  00 00 80 					mov		pulse_duration,w0
 1787 0007f8  05 60 AE 					btss	g_flags,#no_LED				; if no_LED flag clear
 1788 0007fa  00 00 88 					mov		w0,PWM_B_OC					; set the next OC2RS value
 1789              	
 1790              					;--- start single pulse generation on B ---
 1791 0007fc  40 C0 21 					mov		#OCCON_VAL,w0
 1792 0007fe  05 60 AE 					btss	g_flags,#no_LED				; if no_LED flag clear
 1793 000800  00 00 88 					mov		w0,PWM_B_OCC				;   set OC register
 1794              	
 1795              					;--- set PORTs -----------------------------
 1796 000802  00 00 80 					mov		port_buff,w0				; load next PORTA data into W
 1797 000804  11 00 80 					mov		port_buff+2,w1				; load next PORTB data into W
 1798              	.if (PORTA_bits>0)
 1799 000806  00 00 88 					mov		w0,LATA						; update PORTA LATCH
 1800 000808  01 00 88 					mov		w1,LATB						; update PORTB LATCH
 1801              	.else
 1802              					mov		w0,LATB						; update PORTB LATCH
MPLAB ASM30 Listing:  aurora9x18mk2.s 			page 38
Aurora main engine

 1803              					mov		w1,LATC						; update PORTC LATCH
 1804              	.endif
 1805              	
 1806              					;--- move on to the next PWM level -------------------
 1807 00080a  32 A1 EC 					inc2	output_duty
 1808 00080c  F0 0F 20 					mov		#max_duty,w0
 1809 00080e  32 01 E3 					cp		output_duty					; if output_duty > max_duty
 1810 000810  00 00 36 					bra		LEU,B_done
 1811              	MSB_done:											; max_duty done {
 1812 000812  04 00 AF 					btsc	g_flags,#do_not_read		; if LED data being updated
 1813 000814  00 00 37 					bra		Blanking					;   skip copying of LED data
 1814              	
 1815              					;--- sort & copy LED duty values to buffer -----------
 1816 000816  00 00 20 					mov		#tblpage(LED_pins),w0		; prepare LED pin lookup
 1817 000818  00 00 88 					mov		w0,TBLPAG
 1818 00081a  00 00 EB 					clr		w0							; clear w0 to prepare for byte read
 1819              	
 1820              					;--- R data ---
 1821 00081c  05 00 20 					mov		#tbloffset(LED_pins),w5		; table address -> w5
 1822 00081e  01 00 20 					mov		#LED_data_R,w1				; w1 -> LED_data
 1823 000820  24 01 20 					mov		#LED_data_R+(2*num_LEDs),w4	; w4 -> last LED_data (loop stopper)
 1824 000822  02 00 20 					mov		#duty_buff_R,w2				; w2 -> duty_buff
 1825              	0:
 1826 000824  35 40 BA 					tblrdl.b [w5++],w0					; read the LED pin destination
 1827 000826  31 31 78 					mov		[w1++],[w2+w0]				; copy LED_data(w1) -> duty_buff_x
 1828 000828  04 08 E1 					cp		w1,w4						; finish if (w1 = w4)
 1829 00082a  00 00 3A 					bra		NZ,0b
 1830              	
 1831              					;--- G data ---
 1832 00082c  05 00 20 					mov		#tbloffset(LED_pins),w5		; table address -> w5
 1833              	
 1834 00082e  01 00 20 					mov		#LED_data_G,w1
 1835 000830  24 01 20 					mov		#LED_data_G+(2*num_LEDs),w4	; address of the last LED_data -> w4
 1836 000832  02 00 20 					mov		#duty_buff_G,w2
 1837              	0:
 1838 000834  35 40 BA 					tblrdl.b [w5++],w0					; read the LED pin destination
 1839 000836  31 31 78 					mov		[w1++],[w2+w0]				; LED_data(w1) -> duty_buff_x
 1840 000838  04 08 E1 					cp		w1,w4						; finish if (w1 = w4)
 1841 00083a  00 00 3A 					bra		NZ,0b
 1842              	
 1843              					;--- B data ---
 1844 00083c  05 00 20 					mov		#tbloffset(LED_pins),w5		; table address -> w5
 1845              	
 1846 00083e  01 00 20 					mov		#LED_data_B,w1
 1847 000840  24 01 20 					mov		#LED_data_B+(2*num_LEDs),w4	; address of the last LED_data -> w4
 1848 000842  02 00 20 					mov		#duty_buff_B,w2
 1849              	0:
 1850 000844  35 40 BA 					tblrdl.b [w5++],w0					; read the LED pin destination
 1851 000846  31 31 78 					mov		[w1++],[w2+w0]				; LED_data(w1) -> duty_buff_x
 1852 000848  04 08 E1 					cp		w1,w4						; finish if (w1 = w4)
 1853 00084a  00 00 3A 					bra		NZ,0b
 1854              	
 1855              	Blanking:		;--- Blanking period ---------------------------------
 1856 00084c  32 21 EF 					clr		output_duty
 1857 00084e  32 21 EC 					inc		output_duty					; output_duty = 1
 1858 000850  20 00 20 					mov		#2,w0
 1859 000852  00 00 88 					mov		w0,RGB						; RGB = 2 so R-ch will be next
MPLAB ASM30 Listing:  aurora9x18mk2.s 			page 39
Aurora main engine

 1860              	.ifdef __DEBUG
 1861              					btg		_debug_port,#_debug_out		; *DEBUG* output pulse
 1862              	.endif
 1863              	
 1864              					;-----------------------------------------------------
 1865              														; }
 1866              	
 1867              	B_done:			;--- expand duty value via LUT ---
 1868 000854  01 00 80 					mov		PSVPAG,w1					; backup PSVPAV
 1869 000856  00 00 20 					mov		#psvpage(duty_LUT),w0		; set up PSV
 1870 000858  00 00 88 					mov		w0,PSVPAG
 1871 00085a  03 00 20 					mov		#psvoffset(duty_LUT),w3
 1872              	
 1873 00085c  00 00 80 					mov		output_duty,w0
 1874              					; dimmed output - shorten the LED on time
 1875 00085e  05 00 AF 					btsc	g_flags,#dimmed1
 1876 000860  00 00 D1 					lsr		w0,w0						; dim one level
 1877 000862  05 20 AF 					btsc	g_flags,#dimmed2
 1878 000864  00 00 D1 					lsr		w0,w0						; dim another level
 1879              	0:
 1880              	;				sl		w0,w0						; address offset = value * 2
 1881 000866  00 00 A1 					bclr	w0,#0						; make sure w0 is even number
 1882 000868  63 00 78 					mov		[w3+w0],w0
 1883 00086a  00 00 88 					mov		w0,pulse_duration
 1884 00086c  01 00 88 					mov		w1,PSVPAG					; restore PSVPAV
 1885              	
 1886              					;--- prepare PORT data for the next cycle --
 1887 00086e  00 00 02 					call	update_ports_R
 1887         00 00 00 
 1888              	
 1889              	RGB_done:		;---  ------------------------------------------------
 1890 000872  30 21 EC 					inc		RGB							; next RGB channel
 1891              	
 1892 000874  00 60 FE 					clrwdt
 1893              	
 1894 000876  4F 02 BE 					pop.d	w4							; pop w4,w5
 1895 000878  00 80 FE 					pop.s
 1896 00087a  00 E0 A9 					bclr	IFS0,#T2IF					; clear TMR2 int flag
 1897 00087c  00 40 06 					retfie
 1898              	
 1899              	;---------------------------------------------------------------------
 1900              	;	update ports based on the LED duty values
 1901              	;
 1902              	update_ports_R:
 1903 00087e  01 00 20 					mov		#duty_buff_R,w1				; point to duty buffer
 1904 000880  02 00 20 					mov		#port_buff,w2				; point to port buffer
 1905 000882  00 00 37 					bra		1f
 1906              	update_ports_G:
 1907 000884  01 00 20 					mov		#duty_buff_G,w1				; point to duty buffer
 1908 000886  02 00 20 					mov		#port_buff,w2				; point to port buffer
 1909 000888  00 00 37 					bra		1f
 1910              	update_ports_B:
 1911 00088a  01 00 20 					mov		#duty_buff_B,w1				; point to duty buffer
 1912 00088c  02 00 20 					mov		#port_buff,w2				; point to port buffer
 1913              	1:
 1914 00088e  03 00 80 					mov		output_duty,w3				; current output_duty -> w3
 1915              	;				bclr	g_flags,#no_LED				; clear no LED flag
MPLAB ASM30 Listing:  aurora9x18mk2.s 			page 40
Aurora main engine

 1916              	
 1917              	.if (PORTA_bits > 0)
 1918 000890  04 01 20 					mov		#(1<<(PORTA_bits-1)),w4		; set the stopper bit
 1919 000892  04 09 78 					mov		w4,[w2]						; this exits the loop
 1920              	0:
 1921 000894  31 00 78 					mov		[w1++],w0					; LED_data -> w0
 1922 000896  03 04 E1 					cp.b	w0,w3						; compare LED_data:output_duty -> C
 1923 000898  12 89 D3 					rrc		[w2],[w2]					; C -> MSB of port data
 1924 00089a  00 00 39 					bra		NC,0b
 1925              	
 1926              	;				cp0		[w2]						; if ([w2] == 0)
 1927              	;				bra		NZ,1f
 1928              	;				bset	g_flags,#no_LED				;   set no LED flag
 1929              	1:
 1930              	.if (PORTA_bits < 16)
 1931 00089c  0A 00 09 					repeat	#16-PORTA_bits-1
 1932 00089e  12 09 D1 					lsr		[w2],[w2]
 1933              	.endif
 1934              	.if	(COL_POL)	; active-high drive
 1935 0008a0  02 81 E8 					inc2	w2,w2						; advance the pointer
 1936              	.else			; active-low drive
 1937              					com		[w2],[w2++]					; invert the data
 1938              	.endif
 1939              	.endif
 1940              	
 1941              														; repeat on PORTB
 1942 0008a2  04 00 28 					mov		#(1<<(PORTB_bits-1)),w4		; set the stopper bit
 1943 0008a4  04 09 78 					mov		w4,[w2]						; this exits the loop
 1944              	0:
 1945 0008a6  31 00 78 					mov		[w1++],w0					; LED_data -> w0
 1946 0008a8  03 04 E1 					cp.b	w0,w3						; compare LED_data:output_duty -> C
 1947 0008aa  12 89 D3 					rrc		[w2],[w2]					; C -> MSB of port data
 1948 0008ac  00 00 39 					bra		NC,0b
 1949              	
 1950              	;				btss	g_flags,#no_LED				; if no_LED flag set
 1951              	;				bra		1f							; {
 1952              	;				cp0		[w2]						;   if ([w2] != 0)
 1953              	;				bra		Z,1f
 1954              	;				bclr	g_flags,#no_LED				;     clear no LED flag
 1955              	1:													; }
 1956              	.if (PORTB_bits < 16)
 1957              					repeat	#16-PORTB_bits-1
 1958              					lsr		[w2],[w2]
 1959              	.endif
 1960              	.if	(COL_POL)	; active-high drive
 1961 0008ae  02 81 E8 					inc2	w2,w2						; advance the pointer
 1962              	.else			; active-low drive
 1963              					com		[w2],[w2++]					; invert the data
 1964              	.endif
 1965              	
 1966              	.if (PORTC_bits > 0)
 1967              														; repeat on PORTC
 1968              					mov		#(1<<(PORTC_bits-1)),w4		; set the stopper bit
 1969              					mov		w4,[w2]						; this exits the loop
 1970              	0:
 1971              					mov		[w1++],w0					; LED_data -> w0
 1972              					cp.b	w0,w3						; compare LED_data:output_duty -> C
MPLAB ASM30 Listing:  aurora9x18mk2.s 			page 41
Aurora main engine

 1973              					rrc		[w2],[w2]					; C -> MSB of port data
 1974              					bra		NC,0b
 1975              	
 1976              	;				btss	g_flags,#no_LED				; if no_LED flag set
 1977              	;				bra		1f							; {
 1978              	;				cp0		[w2]						;   if ([w2] != 0)
 1979              	;				bra		Z,1f
 1980              	;				bclr	g_flags,#no_LED				;     clear no LED flag
 1981              	1:													; }
 1982              	.if (PORTC_bits < 16)
 1983              					repeat	#16-PORTC_bits-1
 1984              					lsr		[w2],[w2]
 1985              	.endif
 1986              	.if	(!COL_POL)	; active-low drive
 1987              					com		[w2],[w2]					; invert the data
 1988              	.endif
 1989              	.endif
 1990 0008b0  00 00 06 					return
 1991              	
 1992              	;---------------------------------------------------------------------
 1993              	;	duty expansion look up table
 1994              	;
 1995              		.equ	duty_knee,6
 1996              		.equ	max_pulse_length,(pr_value-port_blank-1)
 1997              	
 1998 0008b2  2B 00 00 	duty_LUT:	.word	port_delay+1
 1999              				.rept	duty_knee			; slow slope at the low brightness
 2000              					.word	port_delay+1
 2001 0008b4  2B 00 00 				.endr
 2001         2B 00 00 
 2001         2B 00 00 
 2001         2B 00 00 
 2001         2B 00 00 
 2001         2B 00 00 
 2002              				.equ	x, 0
 2003              				.rept	max_duty/2-duty_knee
 2004              					.equ	x, x+2
 2005              					.equ	y, x*(max_pulse_length-1)/((max_duty/2-duty_knee)*2)+1
 2006              					.word	(port_delay+y) % (pr_value+1)		; OCxRS (end of pulse) value
 2007 0008c0  2B 00 00 				.endr
 2007         2C 00 00 
 2007         2D 00 00 
 2007         2E 00 00 
 2007         2F 00 00 
 2007         30 00 00 
 2007         31 00 00 
 2007         32 00 00 
 2007         33 00 00 
 2008              	
 2009              	.if 0	;--- show/hide pulse_duration values for evaluation ---
 2010              	duty_LUT_eval:	.word	pr_value
 2011              				.rept	duty_knee			; slow slope at the low brightness
 2012              					.word	1
 2013              				.endr
 2014              				.equ	x, 0
 2015              				.rept	max_duty/2-duty_knee
 2016              					.equ	x, x+2
MPLAB ASM30 Listing:  aurora9x18mk2.s 			page 42
Aurora main engine

 2017              					.equ	y, x*(max_pulse_length-1)/((max_duty/2-duty_knee)*2)+1
 2018              	;				.equ	y, x*(max_pulse_length-1-(duty_knee/2))/(max_duty-duty_knee)+(duty_knee/2)
 2019              					.word	y
 2020              				.endr
 2021              	duty_LUT_end:
 2022              				.word	max_pulse_length	; EOT mark
 2023              	.endif
 2024              	
 2025              	;-------------------------------------------------------------------------------
 2026              	;	EEPROM read/write
 2027              	;
 2028              		.equ	eeprom_addr,0x7ffe00	; EEPROM address to keep the data
 2029              	eeprom_write:	;--- write w0 into eeprom_addr+w1 ---
 2030 0009b2  F2 07 20 					mov		#tblpage(eeprom_addr),w2	; top 8 bits of EEPROM address
 2031 0009b4  02 00 88 					mov		w2,TBLPAG
 2032 0009b6  02 E0 2F 					mov		#tbloffset(eeprom_addr),w2	; address -> w2
 2033 0009b8  81 00 41 					add		w2,w1,w1
 2034              	
 2035 0009ba  80 08 BB 					tblwtl	w0,[w1]						
 2036              	
 2037 0009bc  00 20 EF 					clr		NVMCON
 2038 0009be  01 C0 A8 					bset	NVMCON,#WREN				; set write enable bit
 2039 0009c0  00 40 A8 					bset	NVMCON,#NVMOP2
 2040              	
 2041 0009c2  07 00 FC 					disi	#7							; disable INITs
 2042              														; unlock sequence
 2043 0009c4  51 05 20 					mov		#0x55,w1
 2044 0009c6  01 00 88 					mov		w1,NVMKEY
 2045 0009c8  A1 0A 20 					mov		#0xAA,w1
 2046 0009ca  01 00 88 					mov		w1,NVMKEY
 2047 0009cc  01 E0 A8 					bset	NVMCON,#WR					; initiate write oparation
 2048 0009ce  00 00 00 					nop
 2049 0009d0  00 00 00 					nop
 2050              	
 2051 0009d2  00 60 FE 	0:				clrwdt
 2052 0009d4  01 E0 AF 					btsc	NVMCON,#WR					; wait till WR clears
 2053 0009d6  00 00 37 					bra		0b
 2054              	
 2055 0009d8  00 00 06 					return
 2056              	
 2057              	
 2058              	eeprom_read:	;--- read eeprom_addr+w1 into w0 --------------
 2059 0009da  F2 07 20 					mov		#tblpage(eeprom_addr),w2	; top 8 bits of EEPROM address
 2060 0009dc  02 00 88 					mov		w2,TBLPAG
 2061 0009de  02 E0 2F 					mov		#tbloffset(eeprom_addr),w2	; address -> w2
 2062 0009e0  81 00 41 					add		w2,w1,w1
 2063              	
 2064 0009e2  11 00 BA 					tblrdl	[w1],w0
 2065              	
 2066 0009e4  00 00 06 					return
 2067              	
 2068              	;-------------------------------------------------------------------------------
 2069              	;	IR receiver service
 2070              	__CNInterrupt:
 2071 0009e6  00 A0 FE 					push.s
 2072              	
 2073 0009e8  01 E0 AF 					btsc	IR_PORT,#IR_BIT				; is the IR port high?
MPLAB ASM30 Listing:  aurora9x18mk2.s 			page 43
Aurora main engine

 2074 0009ea  00 00 37 					bra		IR_read_timer				;   IR port is high - read the timer
 2075              	IR_start_timer:										;   IR port is low - start the timer
 2076 0009ec  00 D0 27 					mov		#start_bit,w0				; set timer3 period
 2077 0009ee  00 00 88 					mov		w0,PR3
 2078 0009f0  00 20 EF 					clr		TMR3
 2079 0009f2  01 00 A9 					bclr	IFS0,#T3IF					; clear timer3 overflow flag
 2080 0009f4  01 E0 A8 					bset	T3CON,#TON					; start timer3
 2081 0009f6  00 00 37 					bra		IR_end
 2082              	IR_read_timer:
 2083 0009f8  01 E0 A9 					bclr	T3CON,#TON					; stop timer3
 2084 0009fa  01 00 AF 					btsc	IFS0,#T3IF					; did timer3 overflow?
 2085 0009fc  00 00 37 					bra		IR_start_bit				;   then it's a start bit
 2086              	
 2087 0009fe  04 A0 AE 					btss	IR_flags,#IR_RCV			; else check if start bit has already been received
 2088 000a00  00 00 37 					bra		IR_end						;   not a start bit, skip until start bit comes in
 2089              														; yes, move on to decoding data bit
 2090              	
 2091              	IR_long_short:										; long or short pulse (1 or 0)?
 2092 000a02  00 84 23 					mov		#bit_threshold,w0			; compare timer with bit threshold
 2093 000a04  00 00 E3 					cp		TMR3						; data bit is in the C flag
 2094 000a06  0A A0 D7 					rrc		_IR_data					; shift into the data buffer
 2095              	IR_data_end:
 2096 000a08  00 00 39 					bra		NC,IR_end					; if the C flag set, all bits in
 2097              	IR_data_done:										; process the received data
 2098 000a0a  00 00 80 					mov		_IR_data,w0
 2099 000a0c  44 00 DE 					lsr		w0,#4,w0					; shift data 4 bits (data is only 12 bits)
 2100 000a0e  0E 00 E3 					cp		_IR_last_data				; compare the data with the last data received
 2101 000a10  00 00 32 					bra		Z,IR_data_verified
 2102 000a12  00 00 88 					mov		w0,_IR_last_data			; update last data buffer
 2103 000a14  00 00 37 					bra		IR_data_discard				; discard the data received
 2104              	IR_data_verified:
 2105 000a16  00 00 88 					mov		w0,IR_keycode				; separate the data into keycode and device code
 2106 000a18  47 00 DE 					lsr		w0,#7,w0					; device code is the upper 5 bits above 7 bits of keycode
 2107 000a1a  00 00 88 					mov		w0,IR_device
 2108 000a1c  F0 07 20 					mov		#0b01111111,w0
 2109 000a1e  06 20 B6 					and		IR_keycode					; keycode is the last 7 bits
 2110 000a20  04 E0 A8 					bset	IR_flags,#IR_RCD			; set IR received flag
 2111              	IR_data_discard:
 2112 000a22  04 A0 A9 					bclr	IR_flags,#IR_RCV			; clear IR receiving flag
 2113 000a24  00 00 37 					bra		IR_end
 2114              	
 2115              	IR_start_bit:										; start bit came in
 2116 000a26  00 80 20 					mov		#1<<11,w0					; initialize the data buffer (12th bit set)
 2117 000a28  00 00 88 					mov		w0,_IR_data
 2118 000a2a  04 A0 A8 					bset	IR_flags,#IR_RCV			; set IR receiving flag
 2119              	
 2120              	IR_end:
 2121 000a2c  00 60 A9 					bclr	IFS1,#CNIF					; clear CN int flag
 2122 000a2e  00 80 FE 					pop.s
 2123 000a30  00 40 06 					retfie
 2124              	
 2125              	;-------------------------------------------------------------------------------
 2126              	;===============================================================================
 2127              	
 2128              		.end
MPLAB ASM30 Listing:  aurora9x18mk2.s 			page 44
Aurora main engine

DEFINED SYMBOLS
                            *ABS*:00000000 Z:/akimitsu On My Mac/Dropbox/tech stuff/LED Artist/Aurora/-firmware/9x18mk2/aurora9x18mk2-1.4/aurora_main.s
                            *ABS*:00000000 Z:/akimitsu On My Mac/Dropbox/tech stuff/LED Artist/Aurora/-firmware/9x18mk2/aurora9x18mk2-1.4/SONY_TV.INC
                            *ABS*:00000000 C:/Program Files/Microchip/MPLAB ASM30 Suite/support/PIC24F/inc/P24FV16KA301.INC
                            *ABS*:00000000 Z:/akimitsu On My Mac/Dropbox/tech stuff/LED Artist/Aurora/-firmware/9x18mk2/aurora9x18mk2-1.4/aurora9x18mk2.s
                            *ABS*:00000001 __24FV16KA301
                            *ABS*:00000001 __PIC24FK
                            *ABS*:00000001 __HAS_EEDATA
                            *ABS*:00000001 __HAS_CODEGUARD
                            *ABS*:00000001 __HAS_5VOLTS
                            *ABS*:00000001 __C30COFF
C:\Program Files\Microchip\MPLAB ASM30 Suite\bin\..\support\PIC24F\inc/P24FV16KA301.INC:953    *ABS*:00000000 C
C:\Program Files\Microchip\MPLAB ASM30 Suite\bin\..\support\PIC24F\inc/P24FV16KA301.INC:954    *ABS*:00000001 Z
C:\Program Files\Microchip\MPLAB ASM30 Suite\bin\..\support\PIC24F\inc/P24FV16KA301.INC:955    *ABS*:00000002 OV
C:\Program Files\Microchip\MPLAB ASM30 Suite\bin\..\support\PIC24F\inc/P24FV16KA301.INC:956    *ABS*:00000003 N
C:\Program Files\Microchip\MPLAB ASM30 Suite\bin\..\support\PIC24F\inc/P24FV16KA301.INC:957    *ABS*:00000004 RA
C:\Program Files\Microchip\MPLAB ASM30 Suite\bin\..\support\PIC24F\inc/P24FV16KA301.INC:958    *ABS*:00000008 DC
C:\Program Files\Microchip\MPLAB ASM30 Suite\bin\..\support\PIC24F\inc/P24FV16KA301.INC:960    *ABS*:00000005 IPL0
C:\Program Files\Microchip\MPLAB ASM30 Suite\bin\..\support\PIC24F\inc/P24FV16KA301.INC:961    *ABS*:00000006 IPL1
C:\Program Files\Microchip\MPLAB ASM30 Suite\bin\..\support\PIC24F\inc/P24FV16KA301.INC:962    *ABS*:00000007 IPL2
C:\Program Files\Microchip\MPLAB ASM30 Suite\bin\..\support\PIC24F\inc/P24FV16KA301.INC:966    *ABS*:00000002 PSV
C:\Program Files\Microchip\MPLAB ASM30 Suite\bin\..\support\PIC24F\inc/P24FV16KA301.INC:967    *ABS*:00000003 IPL3
C:\Program Files\Microchip\MPLAB ASM30 Suite\bin\..\support\PIC24F\inc/P24FV16KA301.INC:971    *ABS*:00000000 CN0PDE
C:\Program Files\Microchip\MPLAB ASM30 Suite\bin\..\support\PIC24F\inc/P24FV16KA301.INC:972    *ABS*:00000001 CN1PDE
C:\Program Files\Microchip\MPLAB ASM30 Suite\bin\..\support\PIC24F\inc/P24FV16KA301.INC:973    *ABS*:00000002 CN2PDE
C:\Program Files\Microchip\MPLAB ASM30 Suite\bin\..\support\PIC24F\inc/P24FV16KA301.INC:974    *ABS*:00000003 CN3PDE
C:\Program Files\Microchip\MPLAB ASM30 Suite\bin\..\support\PIC24F\inc/P24FV16KA301.INC:975    *ABS*:00000004 CN4PDE
C:\Program Files\Microchip\MPLAB ASM30 Suite\bin\..\support\PIC24F\inc/P24FV16KA301.INC:976    *ABS*:00000005 CN5PDE
C:\Program Files\Microchip\MPLAB ASM30 Suite\bin\..\support\PIC24F\inc/P24FV16KA301.INC:977    *ABS*:00000006 CN6PDE
C:\Program Files\Microchip\MPLAB ASM30 Suite\bin\..\support\PIC24F\inc/P24FV16KA301.INC:978    *ABS*:0000000b CN11PDE
C:\Program Files\Microchip\MPLAB ASM30 Suite\bin\..\support\PIC24F\inc/P24FV16KA301.INC:979    *ABS*:0000000c CN12PDE
C:\Program Files\Microchip\MPLAB ASM30 Suite\bin\..\support\PIC24F\inc/P24FV16KA301.INC:980    *ABS*:0000000d CN13PDE
C:\Program Files\Microchip\MPLAB ASM30 Suite\bin\..\support\PIC24F\inc/P24FV16KA301.INC:981    *ABS*:0000000e CN14PDE
C:\Program Files\Microchip\MPLAB ASM30 Suite\bin\..\support\PIC24F\inc/P24FV16KA301.INC:985    *ABS*:00000005 CN21PDE
C:\Program Files\Microchip\MPLAB ASM30 Suite\bin\..\support\PIC24F\inc/P24FV16KA301.INC:986    *ABS*:00000006 CN22PDE
C:\Program Files\Microchip\MPLAB ASM30 Suite\bin\..\support\PIC24F\inc/P24FV16KA301.INC:987    *ABS*:00000007 CN23PDE
C:\Program Files\Microchip\MPLAB ASM30 Suite\bin\..\support\PIC24F\inc/P24FV16KA301.INC:988    *ABS*:0000000d CN29PDE
C:\Program Files\Microchip\MPLAB ASM30 Suite\bin\..\support\PIC24F\inc/P24FV16KA301.INC:989    *ABS*:0000000e CN30PDE
C:\Program Files\Microchip\MPLAB ASM30 Suite\bin\..\support\PIC24F\inc/P24FV16KA301.INC:993    *ABS*:00000000 CN0IE
C:\Program Files\Microchip\MPLAB ASM30 Suite\bin\..\support\PIC24F\inc/P24FV16KA301.INC:994    *ABS*:00000001 CN1IE
C:\Program Files\Microchip\MPLAB ASM30 Suite\bin\..\support\PIC24F\inc/P24FV16KA301.INC:995    *ABS*:00000002 CN2IE
C:\Program Files\Microchip\MPLAB ASM30 Suite\bin\..\support\PIC24F\inc/P24FV16KA301.INC:996    *ABS*:00000003 CN3IE
C:\Program Files\Microchip\MPLAB ASM30 Suite\bin\..\support\PIC24F\inc/P24FV16KA301.INC:997    *ABS*:00000004 CN4IE
C:\Program Files\Microchip\MPLAB ASM30 Suite\bin\..\support\PIC24F\inc/P24FV16KA301.INC:998    *ABS*:00000005 CN5IE
C:\Program Files\Microchip\MPLAB ASM30 Suite\bin\..\support\PIC24F\inc/P24FV16KA301.INC:999    *ABS*:00000006 CN6IE
C:\Program Files\Microchip\MPLAB ASM30 Suite\bin\..\support\PIC24F\inc/P24FV16KA301.INC:1000   *ABS*:0000000b CN11IE
C:\Program Files\Microchip\MPLAB ASM30 Suite\bin\..\support\PIC24F\inc/P24FV16KA301.INC:1001   *ABS*:0000000c CN12IE
C:\Program Files\Microchip\MPLAB ASM30 Suite\bin\..\support\PIC24F\inc/P24FV16KA301.INC:1002   *ABS*:0000000d CN13IE
C:\Program Files\Microchip\MPLAB ASM30 Suite\bin\..\support\PIC24F\inc/P24FV16KA301.INC:1003   *ABS*:0000000e CN14IE
C:\Program Files\Microchip\MPLAB ASM30 Suite\bin\..\support\PIC24F\inc/P24FV16KA301.INC:1007   *ABS*:00000005 CN21IE
C:\Program Files\Microchip\MPLAB ASM30 Suite\bin\..\support\PIC24F\inc/P24FV16KA301.INC:1008   *ABS*:00000006 CN22IE
C:\Program Files\Microchip\MPLAB ASM30 Suite\bin\..\support\PIC24F\inc/P24FV16KA301.INC:1009   *ABS*:00000007 CN23IE
C:\Program Files\Microchip\MPLAB ASM30 Suite\bin\..\support\PIC24F\inc/P24FV16KA301.INC:1010   *ABS*:0000000d CN29IE
C:\Program Files\Microchip\MPLAB ASM30 Suite\bin\..\support\PIC24F\inc/P24FV16KA301.INC:1011   *ABS*:0000000e CN30IE
C:\Program Files\Microchip\MPLAB ASM30 Suite\bin\..\support\PIC24F\inc/P24FV16KA301.INC:1015   *ABS*:00000000 CN0PUE
C:\Program Files\Microchip\MPLAB ASM30 Suite\bin\..\support\PIC24F\inc/P24FV16KA301.INC:1016   *ABS*:00000001 CN1PUE
C:\Program Files\Microchip\MPLAB ASM30 Suite\bin\..\support\PIC24F\inc/P24FV16KA301.INC:1017   *ABS*:00000002 CN2PUE
MPLAB ASM30 Listing:  aurora9x18mk2.s 			page 45
Aurora main engine

C:\Program Files\Microchip\MPLAB ASM30 Suite\bin\..\support\PIC24F\inc/P24FV16KA301.INC:1018   *ABS*:00000003 CN3PUE
C:\Program Files\Microchip\MPLAB ASM30 Suite\bin\..\support\PIC24F\inc/P24FV16KA301.INC:1019   *ABS*:00000004 CN4PUE
C:\Program Files\Microchip\MPLAB ASM30 Suite\bin\..\support\PIC24F\inc/P24FV16KA301.INC:1020   *ABS*:00000005 CN5PUE
C:\Program Files\Microchip\MPLAB ASM30 Suite\bin\..\support\PIC24F\inc/P24FV16KA301.INC:1021   *ABS*:00000006 CN6PUE
C:\Program Files\Microchip\MPLAB ASM30 Suite\bin\..\support\PIC24F\inc/P24FV16KA301.INC:1022   *ABS*:0000000b CN11PUE
C:\Program Files\Microchip\MPLAB ASM30 Suite\bin\..\support\PIC24F\inc/P24FV16KA301.INC:1023   *ABS*:0000000c CN12PUE
C:\Program Files\Microchip\MPLAB ASM30 Suite\bin\..\support\PIC24F\inc/P24FV16KA301.INC:1024   *ABS*:0000000d CN13PUE
C:\Program Files\Microchip\MPLAB ASM30 Suite\bin\..\support\PIC24F\inc/P24FV16KA301.INC:1025   *ABS*:0000000e CN14PUE
C:\Program Files\Microchip\MPLAB ASM30 Suite\bin\..\support\PIC24F\inc/P24FV16KA301.INC:1029   *ABS*:00000005 CN21PUE
C:\Program Files\Microchip\MPLAB ASM30 Suite\bin\..\support\PIC24F\inc/P24FV16KA301.INC:1030   *ABS*:00000006 CN22PUE
C:\Program Files\Microchip\MPLAB ASM30 Suite\bin\..\support\PIC24F\inc/P24FV16KA301.INC:1031   *ABS*:00000007 CN23PUE
C:\Program Files\Microchip\MPLAB ASM30 Suite\bin\..\support\PIC24F\inc/P24FV16KA301.INC:1032   *ABS*:0000000d CN29PUE
C:\Program Files\Microchip\MPLAB ASM30 Suite\bin\..\support\PIC24F\inc/P24FV16KA301.INC:1033   *ABS*:0000000e CN30PUE
C:\Program Files\Microchip\MPLAB ASM30 Suite\bin\..\support\PIC24F\inc/P24FV16KA301.INC:1037   *ABS*:00000001 OSCFAIL
C:\Program Files\Microchip\MPLAB ASM30 Suite\bin\..\support\PIC24F\inc/P24FV16KA301.INC:1038   *ABS*:00000002 STKERR
C:\Program Files\Microchip\MPLAB ASM30 Suite\bin\..\support\PIC24F\inc/P24FV16KA301.INC:1039   *ABS*:00000003 ADDRERR
C:\Program Files\Microchip\MPLAB ASM30 Suite\bin\..\support\PIC24F\inc/P24FV16KA301.INC:1040   *ABS*:00000004 MATHERR
C:\Program Files\Microchip\MPLAB ASM30 Suite\bin\..\support\PIC24F\inc/P24FV16KA301.INC:1041   *ABS*:0000000f NSTDIS
C:\Program Files\Microchip\MPLAB ASM30 Suite\bin\..\support\PIC24F\inc/P24FV16KA301.INC:1045   *ABS*:00000000 INT0EP
C:\Program Files\Microchip\MPLAB ASM30 Suite\bin\..\support\PIC24F\inc/P24FV16KA301.INC:1046   *ABS*:00000001 INT1EP
C:\Program Files\Microchip\MPLAB ASM30 Suite\bin\..\support\PIC24F\inc/P24FV16KA301.INC:1047   *ABS*:00000002 INT2EP
C:\Program Files\Microchip\MPLAB ASM30 Suite\bin\..\support\PIC24F\inc/P24FV16KA301.INC:1048   *ABS*:0000000e DISI
C:\Program Files\Microchip\MPLAB ASM30 Suite\bin\..\support\PIC24F\inc/P24FV16KA301.INC:1049   *ABS*:0000000f ALTIVT
C:\Program Files\Microchip\MPLAB ASM30 Suite\bin\..\support\PIC24F\inc/P24FV16KA301.INC:1053   *ABS*:00000000 INT0IF
C:\Program Files\Microchip\MPLAB ASM30 Suite\bin\..\support\PIC24F\inc/P24FV16KA301.INC:1054   *ABS*:00000001 IC1IF
C:\Program Files\Microchip\MPLAB ASM30 Suite\bin\..\support\PIC24F\inc/P24FV16KA301.INC:1055   *ABS*:00000002 OC1IF
C:\Program Files\Microchip\MPLAB ASM30 Suite\bin\..\support\PIC24F\inc/P24FV16KA301.INC:1056   *ABS*:00000003 T1IF
C:\Program Files\Microchip\MPLAB ASM30 Suite\bin\..\support\PIC24F\inc/P24FV16KA301.INC:1057   *ABS*:00000005 IC2IF
C:\Program Files\Microchip\MPLAB ASM30 Suite\bin\..\support\PIC24F\inc/P24FV16KA301.INC:1058   *ABS*:00000006 OC2IF
C:\Program Files\Microchip\MPLAB ASM30 Suite\bin\..\support\PIC24F\inc/P24FV16KA301.INC:1059   *ABS*:00000007 T2IF
C:\Program Files\Microchip\MPLAB ASM30 Suite\bin\..\support\PIC24F\inc/P24FV16KA301.INC:1060   *ABS*:00000008 T3IF
C:\Program Files\Microchip\MPLAB ASM30 Suite\bin\..\support\PIC24F\inc/P24FV16KA301.INC:1061   *ABS*:00000009 SPF1IF
C:\Program Files\Microchip\MPLAB ASM30 Suite\bin\..\support\PIC24F\inc/P24FV16KA301.INC:1062   *ABS*:0000000a SPI1IF
C:\Program Files\Microchip\MPLAB ASM30 Suite\bin\..\support\PIC24F\inc/P24FV16KA301.INC:1063   *ABS*:0000000b U1RXIF
C:\Program Files\Microchip\MPLAB ASM30 Suite\bin\..\support\PIC24F\inc/P24FV16KA301.INC:1064   *ABS*:0000000c U1TXIF
C:\Program Files\Microchip\MPLAB ASM30 Suite\bin\..\support\PIC24F\inc/P24FV16KA301.INC:1065   *ABS*:0000000d AD1IF
C:\Program Files\Microchip\MPLAB ASM30 Suite\bin\..\support\PIC24F\inc/P24FV16KA301.INC:1066   *ABS*:0000000f NVMIF
C:\Program Files\Microchip\MPLAB ASM30 Suite\bin\..\support\PIC24F\inc/P24FV16KA301.INC:1070   *ABS*:00000000 SI2C1IF
C:\Program Files\Microchip\MPLAB ASM30 Suite\bin\..\support\PIC24F\inc/P24FV16KA301.INC:1071   *ABS*:00000001 MI2C1IF
C:\Program Files\Microchip\MPLAB ASM30 Suite\bin\..\support\PIC24F\inc/P24FV16KA301.INC:1072   *ABS*:00000002 CMIF
C:\Program Files\Microchip\MPLAB ASM30 Suite\bin\..\support\PIC24F\inc/P24FV16KA301.INC:1073   *ABS*:00000003 CNIF
C:\Program Files\Microchip\MPLAB ASM30 Suite\bin\..\support\PIC24F\inc/P24FV16KA301.INC:1074   *ABS*:00000004 INT1IF
C:\Program Files\Microchip\MPLAB ASM30 Suite\bin\..\support\PIC24F\inc/P24FV16KA301.INC:1075   *ABS*:00000009 OC3IF
C:\Program Files\Microchip\MPLAB ASM30 Suite\bin\..\support\PIC24F\inc/P24FV16KA301.INC:1076   *ABS*:0000000b T4IF
C:\Program Files\Microchip\MPLAB ASM30 Suite\bin\..\support\PIC24F\inc/P24FV16KA301.INC:1077   *ABS*:0000000c T5IF
C:\Program Files\Microchip\MPLAB ASM30 Suite\bin\..\support\PIC24F\inc/P24FV16KA301.INC:1078   *ABS*:0000000d INT2IF
C:\Program Files\Microchip\MPLAB ASM30 Suite\bin\..\support\PIC24F\inc/P24FV16KA301.INC:1079   *ABS*:0000000e U2RXIF
C:\Program Files\Microchip\MPLAB ASM30 Suite\bin\..\support\PIC24F\inc/P24FV16KA301.INC:1080   *ABS*:0000000f U2TXIF
C:\Program Files\Microchip\MPLAB ASM30 Suite\bin\..\support\PIC24F\inc/P24FV16KA301.INC:1084   *ABS*:00000000 SPF2IF
C:\Program Files\Microchip\MPLAB ASM30 Suite\bin\..\support\PIC24F\inc/P24FV16KA301.INC:1085   *ABS*:00000001 SPI2IF
C:\Program Files\Microchip\MPLAB ASM30 Suite\bin\..\support\PIC24F\inc/P24FV16KA301.INC:1086   *ABS*:00000005 IC3IF
C:\Program Files\Microchip\MPLAB ASM30 Suite\bin\..\support\PIC24F\inc/P24FV16KA301.INC:1090   *ABS*:00000001 SI2C2IF
C:\Program Files\Microchip\MPLAB ASM30 Suite\bin\..\support\PIC24F\inc/P24FV16KA301.INC:1091   *ABS*:00000002 MI2C2IF
C:\Program Files\Microchip\MPLAB ASM30 Suite\bin\..\support\PIC24F\inc/P24FV16KA301.INC:1092   *ABS*:0000000e RTCIF
C:\Program Files\Microchip\MPLAB ASM30 Suite\bin\..\support\PIC24F\inc/P24FV16KA301.INC:1096   *ABS*:00000001 U1ERIF
C:\Program Files\Microchip\MPLAB ASM30 Suite\bin\..\support\PIC24F\inc/P24FV16KA301.INC:1097   *ABS*:00000002 U2ERIF
C:\Program Files\Microchip\MPLAB ASM30 Suite\bin\..\support\PIC24F\inc/P24FV16KA301.INC:1098   *ABS*:00000003 CRCIF
MPLAB ASM30 Listing:  aurora9x18mk2.s 			page 46
Aurora main engine

C:\Program Files\Microchip\MPLAB ASM30 Suite\bin\..\support\PIC24F\inc/P24FV16KA301.INC:1099   *ABS*:00000008 HLVDIF
C:\Program Files\Microchip\MPLAB ASM30 Suite\bin\..\support\PIC24F\inc/P24FV16KA301.INC:1100   *ABS*:0000000d CTMUIF
C:\Program Files\Microchip\MPLAB ASM30 Suite\bin\..\support\PIC24F\inc/P24FV16KA301.INC:1104   *ABS*:00000000 ULPWUIF
C:\Program Files\Microchip\MPLAB ASM30 Suite\bin\..\support\PIC24F\inc/P24FV16KA301.INC:1108   *ABS*:00000000 INT0IE
C:\Program Files\Microchip\MPLAB ASM30 Suite\bin\..\support\PIC24F\inc/P24FV16KA301.INC:1109   *ABS*:00000001 IC1IE
C:\Program Files\Microchip\MPLAB ASM30 Suite\bin\..\support\PIC24F\inc/P24FV16KA301.INC:1110   *ABS*:00000002 OC1IE
C:\Program Files\Microchip\MPLAB ASM30 Suite\bin\..\support\PIC24F\inc/P24FV16KA301.INC:1111   *ABS*:00000003 T1IE
C:\Program Files\Microchip\MPLAB ASM30 Suite\bin\..\support\PIC24F\inc/P24FV16KA301.INC:1112   *ABS*:00000005 IC2IE
C:\Program Files\Microchip\MPLAB ASM30 Suite\bin\..\support\PIC24F\inc/P24FV16KA301.INC:1113   *ABS*:00000006 OC2IE
C:\Program Files\Microchip\MPLAB ASM30 Suite\bin\..\support\PIC24F\inc/P24FV16KA301.INC:1114   *ABS*:00000007 T2IE
C:\Program Files\Microchip\MPLAB ASM30 Suite\bin\..\support\PIC24F\inc/P24FV16KA301.INC:1115   *ABS*:00000008 T3IE
C:\Program Files\Microchip\MPLAB ASM30 Suite\bin\..\support\PIC24F\inc/P24FV16KA301.INC:1116   *ABS*:00000009 SPF1IE
C:\Program Files\Microchip\MPLAB ASM30 Suite\bin\..\support\PIC24F\inc/P24FV16KA301.INC:1117   *ABS*:0000000a SPI1IE
C:\Program Files\Microchip\MPLAB ASM30 Suite\bin\..\support\PIC24F\inc/P24FV16KA301.INC:1118   *ABS*:0000000b U1RXIE
C:\Program Files\Microchip\MPLAB ASM30 Suite\bin\..\support\PIC24F\inc/P24FV16KA301.INC:1119   *ABS*:0000000c U1TXIE
C:\Program Files\Microchip\MPLAB ASM30 Suite\bin\..\support\PIC24F\inc/P24FV16KA301.INC:1120   *ABS*:0000000d AD1IE
C:\Program Files\Microchip\MPLAB ASM30 Suite\bin\..\support\PIC24F\inc/P24FV16KA301.INC:1121   *ABS*:0000000f NVMIE
C:\Program Files\Microchip\MPLAB ASM30 Suite\bin\..\support\PIC24F\inc/P24FV16KA301.INC:1125   *ABS*:00000000 SI2C1IE
C:\Program Files\Microchip\MPLAB ASM30 Suite\bin\..\support\PIC24F\inc/P24FV16KA301.INC:1126   *ABS*:00000001 MI2C1IE
C:\Program Files\Microchip\MPLAB ASM30 Suite\bin\..\support\PIC24F\inc/P24FV16KA301.INC:1127   *ABS*:00000002 CMIE
C:\Program Files\Microchip\MPLAB ASM30 Suite\bin\..\support\PIC24F\inc/P24FV16KA301.INC:1128   *ABS*:00000003 CNIE
C:\Program Files\Microchip\MPLAB ASM30 Suite\bin\..\support\PIC24F\inc/P24FV16KA301.INC:1129   *ABS*:00000004 INT1IE
C:\Program Files\Microchip\MPLAB ASM30 Suite\bin\..\support\PIC24F\inc/P24FV16KA301.INC:1130   *ABS*:00000009 OC3IE
C:\Program Files\Microchip\MPLAB ASM30 Suite\bin\..\support\PIC24F\inc/P24FV16KA301.INC:1131   *ABS*:0000000b T4IE
C:\Program Files\Microchip\MPLAB ASM30 Suite\bin\..\support\PIC24F\inc/P24FV16KA301.INC:1132   *ABS*:0000000c T5IE
C:\Program Files\Microchip\MPLAB ASM30 Suite\bin\..\support\PIC24F\inc/P24FV16KA301.INC:1133   *ABS*:0000000d INT2IE
C:\Program Files\Microchip\MPLAB ASM30 Suite\bin\..\support\PIC24F\inc/P24FV16KA301.INC:1134   *ABS*:0000000e U2RXIE
C:\Program Files\Microchip\MPLAB ASM30 Suite\bin\..\support\PIC24F\inc/P24FV16KA301.INC:1135   *ABS*:0000000f U2TXIE
C:\Program Files\Microchip\MPLAB ASM30 Suite\bin\..\support\PIC24F\inc/P24FV16KA301.INC:1139   *ABS*:00000000 SPF2IE
C:\Program Files\Microchip\MPLAB ASM30 Suite\bin\..\support\PIC24F\inc/P24FV16KA301.INC:1140   *ABS*:00000001 SPI2IE
C:\Program Files\Microchip\MPLAB ASM30 Suite\bin\..\support\PIC24F\inc/P24FV16KA301.INC:1141   *ABS*:00000005 IC3IE
C:\Program Files\Microchip\MPLAB ASM30 Suite\bin\..\support\PIC24F\inc/P24FV16KA301.INC:1145   *ABS*:00000001 SI2C2IE
C:\Program Files\Microchip\MPLAB ASM30 Suite\bin\..\support\PIC24F\inc/P24FV16KA301.INC:1146   *ABS*:00000002 MI2C2IE
C:\Program Files\Microchip\MPLAB ASM30 Suite\bin\..\support\PIC24F\inc/P24FV16KA301.INC:1147   *ABS*:0000000e RTCIE
C:\Program Files\Microchip\MPLAB ASM30 Suite\bin\..\support\PIC24F\inc/P24FV16KA301.INC:1151   *ABS*:00000001 U1ERIE
C:\Program Files\Microchip\MPLAB ASM30 Suite\bin\..\support\PIC24F\inc/P24FV16KA301.INC:1152   *ABS*:00000002 U2ERIE
C:\Program Files\Microchip\MPLAB ASM30 Suite\bin\..\support\PIC24F\inc/P24FV16KA301.INC:1153   *ABS*:00000003 CRCIE
C:\Program Files\Microchip\MPLAB ASM30 Suite\bin\..\support\PIC24F\inc/P24FV16KA301.INC:1154   *ABS*:00000008 HLVDIE
C:\Program Files\Microchip\MPLAB ASM30 Suite\bin\..\support\PIC24F\inc/P24FV16KA301.INC:1155   *ABS*:0000000d CTMUIE
C:\Program Files\Microchip\MPLAB ASM30 Suite\bin\..\support\PIC24F\inc/P24FV16KA301.INC:1159   *ABS*:00000000 ULPWUIE
C:\Program Files\Microchip\MPLAB ASM30 Suite\bin\..\support\PIC24F\inc/P24FV16KA301.INC:1163   *ABS*:00000000 INT0IP0
C:\Program Files\Microchip\MPLAB ASM30 Suite\bin\..\support\PIC24F\inc/P24FV16KA301.INC:1164   *ABS*:00000001 INT0IP1
C:\Program Files\Microchip\MPLAB ASM30 Suite\bin\..\support\PIC24F\inc/P24FV16KA301.INC:1165   *ABS*:00000002 INT0IP2
C:\Program Files\Microchip\MPLAB ASM30 Suite\bin\..\support\PIC24F\inc/P24FV16KA301.INC:1166   *ABS*:00000004 IC1IP0
C:\Program Files\Microchip\MPLAB ASM30 Suite\bin\..\support\PIC24F\inc/P24FV16KA301.INC:1167   *ABS*:00000005 IC1IP1
C:\Program Files\Microchip\MPLAB ASM30 Suite\bin\..\support\PIC24F\inc/P24FV16KA301.INC:1168   *ABS*:00000006 IC1IP2
C:\Program Files\Microchip\MPLAB ASM30 Suite\bin\..\support\PIC24F\inc/P24FV16KA301.INC:1169   *ABS*:00000008 OC1IP0
C:\Program Files\Microchip\MPLAB ASM30 Suite\bin\..\support\PIC24F\inc/P24FV16KA301.INC:1170   *ABS*:00000009 OC1IP1
C:\Program Files\Microchip\MPLAB ASM30 Suite\bin\..\support\PIC24F\inc/P24FV16KA301.INC:1171   *ABS*:0000000a OC1IP2
C:\Program Files\Microchip\MPLAB ASM30 Suite\bin\..\support\PIC24F\inc/P24FV16KA301.INC:1172   *ABS*:0000000c T1IP0
C:\Program Files\Microchip\MPLAB ASM30 Suite\bin\..\support\PIC24F\inc/P24FV16KA301.INC:1173   *ABS*:0000000d T1IP1
C:\Program Files\Microchip\MPLAB ASM30 Suite\bin\..\support\PIC24F\inc/P24FV16KA301.INC:1174   *ABS*:0000000e T1IP2
C:\Program Files\Microchip\MPLAB ASM30 Suite\bin\..\support\PIC24F\inc/P24FV16KA301.INC:1178   *ABS*:00000004 IC2IP0
C:\Program Files\Microchip\MPLAB ASM30 Suite\bin\..\support\PIC24F\inc/P24FV16KA301.INC:1179   *ABS*:00000005 IC2IP1
C:\Program Files\Microchip\MPLAB ASM30 Suite\bin\..\support\PIC24F\inc/P24FV16KA301.INC:1180   *ABS*:00000006 IC2IP2
C:\Program Files\Microchip\MPLAB ASM30 Suite\bin\..\support\PIC24F\inc/P24FV16KA301.INC:1181   *ABS*:00000008 OC2IP0
C:\Program Files\Microchip\MPLAB ASM30 Suite\bin\..\support\PIC24F\inc/P24FV16KA301.INC:1182   *ABS*:00000009 OC2IP1
MPLAB ASM30 Listing:  aurora9x18mk2.s 			page 47
Aurora main engine

C:\Program Files\Microchip\MPLAB ASM30 Suite\bin\..\support\PIC24F\inc/P24FV16KA301.INC:1183   *ABS*:0000000a OC2IP2
C:\Program Files\Microchip\MPLAB ASM30 Suite\bin\..\support\PIC24F\inc/P24FV16KA301.INC:1184   *ABS*:0000000c T2IP0
C:\Program Files\Microchip\MPLAB ASM30 Suite\bin\..\support\PIC24F\inc/P24FV16KA301.INC:1185   *ABS*:0000000d T2IP1
C:\Program Files\Microchip\MPLAB ASM30 Suite\bin\..\support\PIC24F\inc/P24FV16KA301.INC:1186   *ABS*:0000000e T2IP2
C:\Program Files\Microchip\MPLAB ASM30 Suite\bin\..\support\PIC24F\inc/P24FV16KA301.INC:1190   *ABS*:00000000 T3IP0
C:\Program Files\Microchip\MPLAB ASM30 Suite\bin\..\support\PIC24F\inc/P24FV16KA301.INC:1191   *ABS*:00000001 T3IP1
C:\Program Files\Microchip\MPLAB ASM30 Suite\bin\..\support\PIC24F\inc/P24FV16KA301.INC:1192   *ABS*:00000002 T3IP2
C:\Program Files\Microchip\MPLAB ASM30 Suite\bin\..\support\PIC24F\inc/P24FV16KA301.INC:1193   *ABS*:00000004 SPF1IP0
C:\Program Files\Microchip\MPLAB ASM30 Suite\bin\..\support\PIC24F\inc/P24FV16KA301.INC:1194   *ABS*:00000005 SPF1IP1
C:\Program Files\Microchip\MPLAB ASM30 Suite\bin\..\support\PIC24F\inc/P24FV16KA301.INC:1195   *ABS*:00000006 SPF1IP2
C:\Program Files\Microchip\MPLAB ASM30 Suite\bin\..\support\PIC24F\inc/P24FV16KA301.INC:1196   *ABS*:00000008 SPI1IP0
C:\Program Files\Microchip\MPLAB ASM30 Suite\bin\..\support\PIC24F\inc/P24FV16KA301.INC:1197   *ABS*:00000009 SPI1IP1
C:\Program Files\Microchip\MPLAB ASM30 Suite\bin\..\support\PIC24F\inc/P24FV16KA301.INC:1198   *ABS*:0000000a SPI1IP2
C:\Program Files\Microchip\MPLAB ASM30 Suite\bin\..\support\PIC24F\inc/P24FV16KA301.INC:1199   *ABS*:0000000c U1RXIP0
C:\Program Files\Microchip\MPLAB ASM30 Suite\bin\..\support\PIC24F\inc/P24FV16KA301.INC:1200   *ABS*:0000000d U1RXIP1
C:\Program Files\Microchip\MPLAB ASM30 Suite\bin\..\support\PIC24F\inc/P24FV16KA301.INC:1201   *ABS*:0000000e U1RXIP2
C:\Program Files\Microchip\MPLAB ASM30 Suite\bin\..\support\PIC24F\inc/P24FV16KA301.INC:1205   *ABS*:00000000 U1TXIP0
C:\Program Files\Microchip\MPLAB ASM30 Suite\bin\..\support\PIC24F\inc/P24FV16KA301.INC:1206   *ABS*:00000001 U1TXIP1
C:\Program Files\Microchip\MPLAB ASM30 Suite\bin\..\support\PIC24F\inc/P24FV16KA301.INC:1207   *ABS*:00000002 U1TXIP2
C:\Program Files\Microchip\MPLAB ASM30 Suite\bin\..\support\PIC24F\inc/P24FV16KA301.INC:1208   *ABS*:00000004 AD1IP0
C:\Program Files\Microchip\MPLAB ASM30 Suite\bin\..\support\PIC24F\inc/P24FV16KA301.INC:1209   *ABS*:00000005 AD1IP1
C:\Program Files\Microchip\MPLAB ASM30 Suite\bin\..\support\PIC24F\inc/P24FV16KA301.INC:1210   *ABS*:00000006 AD1IP2
C:\Program Files\Microchip\MPLAB ASM30 Suite\bin\..\support\PIC24F\inc/P24FV16KA301.INC:1211   *ABS*:0000000c NVMIP0
C:\Program Files\Microchip\MPLAB ASM30 Suite\bin\..\support\PIC24F\inc/P24FV16KA301.INC:1212   *ABS*:0000000d NVMIP1
C:\Program Files\Microchip\MPLAB ASM30 Suite\bin\..\support\PIC24F\inc/P24FV16KA301.INC:1213   *ABS*:0000000e NVMIP2
C:\Program Files\Microchip\MPLAB ASM30 Suite\bin\..\support\PIC24F\inc/P24FV16KA301.INC:1217   *ABS*:00000000 SI2C1P0
C:\Program Files\Microchip\MPLAB ASM30 Suite\bin\..\support\PIC24F\inc/P24FV16KA301.INC:1218   *ABS*:00000001 SI2C1P1
C:\Program Files\Microchip\MPLAB ASM30 Suite\bin\..\support\PIC24F\inc/P24FV16KA301.INC:1219   *ABS*:00000002 SI2C1P2
C:\Program Files\Microchip\MPLAB ASM30 Suite\bin\..\support\PIC24F\inc/P24FV16KA301.INC:1220   *ABS*:00000004 MI2C1P0
C:\Program Files\Microchip\MPLAB ASM30 Suite\bin\..\support\PIC24F\inc/P24FV16KA301.INC:1221   *ABS*:00000005 MI2C1P1
C:\Program Files\Microchip\MPLAB ASM30 Suite\bin\..\support\PIC24F\inc/P24FV16KA301.INC:1222   *ABS*:00000006 MI2C1P2
C:\Program Files\Microchip\MPLAB ASM30 Suite\bin\..\support\PIC24F\inc/P24FV16KA301.INC:1223   *ABS*:00000008 CMIP0
C:\Program Files\Microchip\MPLAB ASM30 Suite\bin\..\support\PIC24F\inc/P24FV16KA301.INC:1224   *ABS*:00000009 CMIP1
C:\Program Files\Microchip\MPLAB ASM30 Suite\bin\..\support\PIC24F\inc/P24FV16KA301.INC:1225   *ABS*:0000000a CMIP2
C:\Program Files\Microchip\MPLAB ASM30 Suite\bin\..\support\PIC24F\inc/P24FV16KA301.INC:1226   *ABS*:0000000c CNIP0
C:\Program Files\Microchip\MPLAB ASM30 Suite\bin\..\support\PIC24F\inc/P24FV16KA301.INC:1227   *ABS*:0000000d CNIP1
C:\Program Files\Microchip\MPLAB ASM30 Suite\bin\..\support\PIC24F\inc/P24FV16KA301.INC:1228   *ABS*:0000000e CNIP2
C:\Program Files\Microchip\MPLAB ASM30 Suite\bin\..\support\PIC24F\inc/P24FV16KA301.INC:1230   *ABS*:00000000 SI2C1IP0
C:\Program Files\Microchip\MPLAB ASM30 Suite\bin\..\support\PIC24F\inc/P24FV16KA301.INC:1231   *ABS*:00000001 SI2C1IP1
C:\Program Files\Microchip\MPLAB ASM30 Suite\bin\..\support\PIC24F\inc/P24FV16KA301.INC:1232   *ABS*:00000002 SI2C1IP2
C:\Program Files\Microchip\MPLAB ASM30 Suite\bin\..\support\PIC24F\inc/P24FV16KA301.INC:1233   *ABS*:00000004 MI2C1IP0
C:\Program Files\Microchip\MPLAB ASM30 Suite\bin\..\support\PIC24F\inc/P24FV16KA301.INC:1234   *ABS*:00000005 MI2C1IP1
C:\Program Files\Microchip\MPLAB ASM30 Suite\bin\..\support\PIC24F\inc/P24FV16KA301.INC:1235   *ABS*:00000006 MI2C1IP2
C:\Program Files\Microchip\MPLAB ASM30 Suite\bin\..\support\PIC24F\inc/P24FV16KA301.INC:1239   *ABS*:00000000 INT1IP0
C:\Program Files\Microchip\MPLAB ASM30 Suite\bin\..\support\PIC24F\inc/P24FV16KA301.INC:1240   *ABS*:00000001 INT1IP1
C:\Program Files\Microchip\MPLAB ASM30 Suite\bin\..\support\PIC24F\inc/P24FV16KA301.INC:1241   *ABS*:00000002 INT1IP2
C:\Program Files\Microchip\MPLAB ASM30 Suite\bin\..\support\PIC24F\inc/P24FV16KA301.INC:1245   *ABS*:00000004 OC3IP0
C:\Program Files\Microchip\MPLAB ASM30 Suite\bin\..\support\PIC24F\inc/P24FV16KA301.INC:1246   *ABS*:00000005 OC3IP1
C:\Program Files\Microchip\MPLAB ASM30 Suite\bin\..\support\PIC24F\inc/P24FV16KA301.INC:1247   *ABS*:00000006 OC3IP2
C:\Program Files\Microchip\MPLAB ASM30 Suite\bin\..\support\PIC24F\inc/P24FV16KA301.INC:1248   *ABS*:0000000c T4IP0
C:\Program Files\Microchip\MPLAB ASM30 Suite\bin\..\support\PIC24F\inc/P24FV16KA301.INC:1249   *ABS*:0000000d T4IP1
C:\Program Files\Microchip\MPLAB ASM30 Suite\bin\..\support\PIC24F\inc/P24FV16KA301.INC:1250   *ABS*:0000000e T4IP2
C:\Program Files\Microchip\MPLAB ASM30 Suite\bin\..\support\PIC24F\inc/P24FV16KA301.INC:1254   *ABS*:00000000 T5IP0
C:\Program Files\Microchip\MPLAB ASM30 Suite\bin\..\support\PIC24F\inc/P24FV16KA301.INC:1255   *ABS*:00000001 T5IP1
C:\Program Files\Microchip\MPLAB ASM30 Suite\bin\..\support\PIC24F\inc/P24FV16KA301.INC:1256   *ABS*:00000002 T5IP2
C:\Program Files\Microchip\MPLAB ASM30 Suite\bin\..\support\PIC24F\inc/P24FV16KA301.INC:1257   *ABS*:00000004 INT2IP0
C:\Program Files\Microchip\MPLAB ASM30 Suite\bin\..\support\PIC24F\inc/P24FV16KA301.INC:1258   *ABS*:00000005 INT2IP1
MPLAB ASM30 Listing:  aurora9x18mk2.s 			page 48
Aurora main engine

C:\Program Files\Microchip\MPLAB ASM30 Suite\bin\..\support\PIC24F\inc/P24FV16KA301.INC:1259   *ABS*:00000006 INT2IP2
C:\Program Files\Microchip\MPLAB ASM30 Suite\bin\..\support\PIC24F\inc/P24FV16KA301.INC:1260   *ABS*:00000008 U2RXIP0
C:\Program Files\Microchip\MPLAB ASM30 Suite\bin\..\support\PIC24F\inc/P24FV16KA301.INC:1261   *ABS*:00000009 U2RXIP1
C:\Program Files\Microchip\MPLAB ASM30 Suite\bin\..\support\PIC24F\inc/P24FV16KA301.INC:1262   *ABS*:0000000a U2RXIP2
C:\Program Files\Microchip\MPLAB ASM30 Suite\bin\..\support\PIC24F\inc/P24FV16KA301.INC:1263   *ABS*:0000000c U2TXIP0
C:\Program Files\Microchip\MPLAB ASM30 Suite\bin\..\support\PIC24F\inc/P24FV16KA301.INC:1264   *ABS*:0000000d U2TXIP1
C:\Program Files\Microchip\MPLAB ASM30 Suite\bin\..\support\PIC24F\inc/P24FV16KA301.INC:1265   *ABS*:0000000e U2TXIP2
C:\Program Files\Microchip\MPLAB ASM30 Suite\bin\..\support\PIC24F\inc/P24FV16KA301.INC:1269   *ABS*:00000000 SPF2IP0
C:\Program Files\Microchip\MPLAB ASM30 Suite\bin\..\support\PIC24F\inc/P24FV16KA301.INC:1270   *ABS*:00000001 SPF2IP1
C:\Program Files\Microchip\MPLAB ASM30 Suite\bin\..\support\PIC24F\inc/P24FV16KA301.INC:1271   *ABS*:00000002 SPF2IP2
C:\Program Files\Microchip\MPLAB ASM30 Suite\bin\..\support\PIC24F\inc/P24FV16KA301.INC:1272   *ABS*:00000004 SPI2IP0
C:\Program Files\Microchip\MPLAB ASM30 Suite\bin\..\support\PIC24F\inc/P24FV16KA301.INC:1273   *ABS*:00000005 SPI2IP1
C:\Program Files\Microchip\MPLAB ASM30 Suite\bin\..\support\PIC24F\inc/P24FV16KA301.INC:1274   *ABS*:00000006 SPI2IP2
C:\Program Files\Microchip\MPLAB ASM30 Suite\bin\..\support\PIC24F\inc/P24FV16KA301.INC:1278   *ABS*:00000004 IC3IP0
C:\Program Files\Microchip\MPLAB ASM30 Suite\bin\..\support\PIC24F\inc/P24FV16KA301.INC:1279   *ABS*:00000005 IC3IP1
C:\Program Files\Microchip\MPLAB ASM30 Suite\bin\..\support\PIC24F\inc/P24FV16KA301.INC:1280   *ABS*:00000006 IC3IP2
C:\Program Files\Microchip\MPLAB ASM30 Suite\bin\..\support\PIC24F\inc/P24FV16KA301.INC:1284   *ABS*:00000004 SI2C2IP0
C:\Program Files\Microchip\MPLAB ASM30 Suite\bin\..\support\PIC24F\inc/P24FV16KA301.INC:1285   *ABS*:00000005 SI2C2IP1
C:\Program Files\Microchip\MPLAB ASM30 Suite\bin\..\support\PIC24F\inc/P24FV16KA301.INC:1286   *ABS*:00000006 SI2C2IP2
C:\Program Files\Microchip\MPLAB ASM30 Suite\bin\..\support\PIC24F\inc/P24FV16KA301.INC:1287   *ABS*:00000008 MI2C2IP0
C:\Program Files\Microchip\MPLAB ASM30 Suite\bin\..\support\PIC24F\inc/P24FV16KA301.INC:1288   *ABS*:00000009 MI2C2IP1
C:\Program Files\Microchip\MPLAB ASM30 Suite\bin\..\support\PIC24F\inc/P24FV16KA301.INC:1289   *ABS*:0000000a MI2C2IP2
C:\Program Files\Microchip\MPLAB ASM30 Suite\bin\..\support\PIC24F\inc/P24FV16KA301.INC:1292   *ABS*:00000004 SI2C2P0
C:\Program Files\Microchip\MPLAB ASM30 Suite\bin\..\support\PIC24F\inc/P24FV16KA301.INC:1293   *ABS*:00000005 SI2C2P1
C:\Program Files\Microchip\MPLAB ASM30 Suite\bin\..\support\PIC24F\inc/P24FV16KA301.INC:1294   *ABS*:00000006 SI2C2P2
C:\Program Files\Microchip\MPLAB ASM30 Suite\bin\..\support\PIC24F\inc/P24FV16KA301.INC:1295   *ABS*:00000008 MI2C2P0
C:\Program Files\Microchip\MPLAB ASM30 Suite\bin\..\support\PIC24F\inc/P24FV16KA301.INC:1296   *ABS*:00000009 MI2C2P1
C:\Program Files\Microchip\MPLAB ASM30 Suite\bin\..\support\PIC24F\inc/P24FV16KA301.INC:1297   *ABS*:0000000a MI2C2P2
C:\Program Files\Microchip\MPLAB ASM30 Suite\bin\..\support\PIC24F\inc/P24FV16KA301.INC:1301   *ABS*:00000008 RTCIP0
C:\Program Files\Microchip\MPLAB ASM30 Suite\bin\..\support\PIC24F\inc/P24FV16KA301.INC:1302   *ABS*:00000009 RTCIP1
C:\Program Files\Microchip\MPLAB ASM30 Suite\bin\..\support\PIC24F\inc/P24FV16KA301.INC:1303   *ABS*:0000000a RTCIP2
C:\Program Files\Microchip\MPLAB ASM30 Suite\bin\..\support\PIC24F\inc/P24FV16KA301.INC:1307   *ABS*:00000004 U1ERIP0
C:\Program Files\Microchip\MPLAB ASM30 Suite\bin\..\support\PIC24F\inc/P24FV16KA301.INC:1308   *ABS*:00000005 U1ERIP1
C:\Program Files\Microchip\MPLAB ASM30 Suite\bin\..\support\PIC24F\inc/P24FV16KA301.INC:1309   *ABS*:00000006 U1ERIP2
C:\Program Files\Microchip\MPLAB ASM30 Suite\bin\..\support\PIC24F\inc/P24FV16KA301.INC:1310   *ABS*:00000008 U2ERIP0
C:\Program Files\Microchip\MPLAB ASM30 Suite\bin\..\support\PIC24F\inc/P24FV16KA301.INC:1311   *ABS*:00000009 U2ERIP1
C:\Program Files\Microchip\MPLAB ASM30 Suite\bin\..\support\PIC24F\inc/P24FV16KA301.INC:1312   *ABS*:0000000a U2ERIP2
C:\Program Files\Microchip\MPLAB ASM30 Suite\bin\..\support\PIC24F\inc/P24FV16KA301.INC:1313   *ABS*:0000000c CRCIP0
C:\Program Files\Microchip\MPLAB ASM30 Suite\bin\..\support\PIC24F\inc/P24FV16KA301.INC:1314   *ABS*:0000000d CRCIP1
C:\Program Files\Microchip\MPLAB ASM30 Suite\bin\..\support\PIC24F\inc/P24FV16KA301.INC:1315   *ABS*:0000000e CRCIP2
C:\Program Files\Microchip\MPLAB ASM30 Suite\bin\..\support\PIC24F\inc/P24FV16KA301.INC:1319   *ABS*:00000000 HLVDIP0
C:\Program Files\Microchip\MPLAB ASM30 Suite\bin\..\support\PIC24F\inc/P24FV16KA301.INC:1320   *ABS*:00000001 HLVDIP1
C:\Program Files\Microchip\MPLAB ASM30 Suite\bin\..\support\PIC24F\inc/P24FV16KA301.INC:1321   *ABS*:00000002 HLVDIP2
C:\Program Files\Microchip\MPLAB ASM30 Suite\bin\..\support\PIC24F\inc/P24FV16KA301.INC:1325   *ABS*:00000004 CTMUIP0
C:\Program Files\Microchip\MPLAB ASM30 Suite\bin\..\support\PIC24F\inc/P24FV16KA301.INC:1326   *ABS*:00000005 CTMUIP1
C:\Program Files\Microchip\MPLAB ASM30 Suite\bin\..\support\PIC24F\inc/P24FV16KA301.INC:1327   *ABS*:00000006 CTMUIP2
C:\Program Files\Microchip\MPLAB ASM30 Suite\bin\..\support\PIC24F\inc/P24FV16KA301.INC:1331   *ABS*:00000000 ULPWUIP0
C:\Program Files\Microchip\MPLAB ASM30 Suite\bin\..\support\PIC24F\inc/P24FV16KA301.INC:1332   *ABS*:00000001 ULPWUIP1
C:\Program Files\Microchip\MPLAB ASM30 Suite\bin\..\support\PIC24F\inc/P24FV16KA301.INC:1333   *ABS*:00000002 ULPWUIP2
C:\Program Files\Microchip\MPLAB ASM30 Suite\bin\..\support\PIC24F\inc/P24FV16KA301.INC:1337   *ABS*:0000000d VHOLD
C:\Program Files\Microchip\MPLAB ASM30 Suite\bin\..\support\PIC24F\inc/P24FV16KA301.INC:1338   *ABS*:0000000f CPUIRQ
C:\Program Files\Microchip\MPLAB ASM30 Suite\bin\..\support\PIC24F\inc/P24FV16KA301.INC:1340   *ABS*:00000000 VECNUM0
C:\Program Files\Microchip\MPLAB ASM30 Suite\bin\..\support\PIC24F\inc/P24FV16KA301.INC:1341   *ABS*:00000001 VECNUM1
C:\Program Files\Microchip\MPLAB ASM30 Suite\bin\..\support\PIC24F\inc/P24FV16KA301.INC:1342   *ABS*:00000002 VECNUM2
C:\Program Files\Microchip\MPLAB ASM30 Suite\bin\..\support\PIC24F\inc/P24FV16KA301.INC:1343   *ABS*:00000003 VECNUM3
C:\Program Files\Microchip\MPLAB ASM30 Suite\bin\..\support\PIC24F\inc/P24FV16KA301.INC:1344   *ABS*:00000004 VECNUM4
C:\Program Files\Microchip\MPLAB ASM30 Suite\bin\..\support\PIC24F\inc/P24FV16KA301.INC:1345   *ABS*:00000005 VECNUM5
MPLAB ASM30 Listing:  aurora9x18mk2.s 			page 49
Aurora main engine

C:\Program Files\Microchip\MPLAB ASM30 Suite\bin\..\support\PIC24F\inc/P24FV16KA301.INC:1346   *ABS*:00000006 VECNUM6
C:\Program Files\Microchip\MPLAB ASM30 Suite\bin\..\support\PIC24F\inc/P24FV16KA301.INC:1347   *ABS*:00000008 ILR0
C:\Program Files\Microchip\MPLAB ASM30 Suite\bin\..\support\PIC24F\inc/P24FV16KA301.INC:1348   *ABS*:00000009 ILR1
C:\Program Files\Microchip\MPLAB ASM30 Suite\bin\..\support\PIC24F\inc/P24FV16KA301.INC:1349   *ABS*:0000000a ILR2
C:\Program Files\Microchip\MPLAB ASM30 Suite\bin\..\support\PIC24F\inc/P24FV16KA301.INC:1350   *ABS*:0000000b ILR3
C:\Program Files\Microchip\MPLAB ASM30 Suite\bin\..\support\PIC24F\inc/P24FV16KA301.INC:1354   *ABS*:00000001 TCS
C:\Program Files\Microchip\MPLAB ASM30 Suite\bin\..\support\PIC24F\inc/P24FV16KA301.INC:1355   *ABS*:00000002 TSYNC
C:\Program Files\Microchip\MPLAB ASM30 Suite\bin\..\support\PIC24F\inc/P24FV16KA301.INC:1356   *ABS*:00000006 TGATE
C:\Program Files\Microchip\MPLAB ASM30 Suite\bin\..\support\PIC24F\inc/P24FV16KA301.INC:1357   *ABS*:0000000d TSIDL
C:\Program Files\Microchip\MPLAB ASM30 Suite\bin\..\support\PIC24F\inc/P24FV16KA301.INC:1358   *ABS*:0000000f TON
C:\Program Files\Microchip\MPLAB ASM30 Suite\bin\..\support\PIC24F\inc/P24FV16KA301.INC:1360   *ABS*:00000004 TCKPS0
C:\Program Files\Microchip\MPLAB ASM30 Suite\bin\..\support\PIC24F\inc/P24FV16KA301.INC:1361   *ABS*:00000005 TCKPS1
C:\Program Files\Microchip\MPLAB ASM30 Suite\bin\..\support\PIC24F\inc/P24FV16KA301.INC:1362   *ABS*:00000008 T1ECS0
C:\Program Files\Microchip\MPLAB ASM30 Suite\bin\..\support\PIC24F\inc/P24FV16KA301.INC:1363   *ABS*:00000009 T1ECS1
C:\Program Files\Microchip\MPLAB ASM30 Suite\bin\..\support\PIC24F\inc/P24FV16KA301.INC:1368   *ABS*:00000003 T32
C:\Program Files\Microchip\MPLAB ASM30 Suite\bin\..\support\PIC24F\inc/P24FV16KA301.INC:1409   *ABS*:00000003 ICBNE
C:\Program Files\Microchip\MPLAB ASM30 Suite\bin\..\support\PIC24F\inc/P24FV16KA301.INC:1410   *ABS*:00000004 ICOV
C:\Program Files\Microchip\MPLAB ASM30 Suite\bin\..\support\PIC24F\inc/P24FV16KA301.INC:1411   *ABS*:0000000d ICSIDL
C:\Program Files\Microchip\MPLAB ASM30 Suite\bin\..\support\PIC24F\inc/P24FV16KA301.INC:1413   *ABS*:00000000 ICM0
C:\Program Files\Microchip\MPLAB ASM30 Suite\bin\..\support\PIC24F\inc/P24FV16KA301.INC:1414   *ABS*:00000001 ICM1
C:\Program Files\Microchip\MPLAB ASM30 Suite\bin\..\support\PIC24F\inc/P24FV16KA301.INC:1415   *ABS*:00000002 ICM2
C:\Program Files\Microchip\MPLAB ASM30 Suite\bin\..\support\PIC24F\inc/P24FV16KA301.INC:1416   *ABS*:00000005 ICI0
C:\Program Files\Microchip\MPLAB ASM30 Suite\bin\..\support\PIC24F\inc/P24FV16KA301.INC:1417   *ABS*:00000006 ICI1
C:\Program Files\Microchip\MPLAB ASM30 Suite\bin\..\support\PIC24F\inc/P24FV16KA301.INC:1418   *ABS*:0000000a IC1TSEL0
C:\Program Files\Microchip\MPLAB ASM30 Suite\bin\..\support\PIC24F\inc/P24FV16KA301.INC:1419   *ABS*:0000000b IC1TSEL1
C:\Program Files\Microchip\MPLAB ASM30 Suite\bin\..\support\PIC24F\inc/P24FV16KA301.INC:1420   *ABS*:0000000c IC1TSEL2
C:\Program Files\Microchip\MPLAB ASM30 Suite\bin\..\support\PIC24F\inc/P24FV16KA301.INC:1424   *ABS*:00000006 TRIGSTAT
C:\Program Files\Microchip\MPLAB ASM30 Suite\bin\..\support\PIC24F\inc/P24FV16KA301.INC:1425   *ABS*:00000007 ICTRIG
C:\Program Files\Microchip\MPLAB ASM30 Suite\bin\..\support\PIC24F\inc/P24FV16KA301.INC:1426   *ABS*:00000008 IC32
C:\Program Files\Microchip\MPLAB ASM30 Suite\bin\..\support\PIC24F\inc/P24FV16KA301.INC:1428   *ABS*:00000000 SYNCSEL0
C:\Program Files\Microchip\MPLAB ASM30 Suite\bin\..\support\PIC24F\inc/P24FV16KA301.INC:1429   *ABS*:00000001 SYNCSEL1
C:\Program Files\Microchip\MPLAB ASM30 Suite\bin\..\support\PIC24F\inc/P24FV16KA301.INC:1430   *ABS*:00000002 SYNCSEL2
C:\Program Files\Microchip\MPLAB ASM30 Suite\bin\..\support\PIC24F\inc/P24FV16KA301.INC:1431   *ABS*:00000003 SYNCSEL3
C:\Program Files\Microchip\MPLAB ASM30 Suite\bin\..\support\PIC24F\inc/P24FV16KA301.INC:1432   *ABS*:00000004 SYNCSEL4
C:\Program Files\Microchip\MPLAB ASM30 Suite\bin\..\support\PIC24F\inc/P24FV16KA301.INC:1445   *ABS*:0000000a IC2TSEL0
C:\Program Files\Microchip\MPLAB ASM30 Suite\bin\..\support\PIC24F\inc/P24FV16KA301.INC:1446   *ABS*:0000000b IC2TSEL1
C:\Program Files\Microchip\MPLAB ASM30 Suite\bin\..\support\PIC24F\inc/P24FV16KA301.INC:1447   *ABS*:0000000c IC2TSEL2
C:\Program Files\Microchip\MPLAB ASM30 Suite\bin\..\support\PIC24F\inc/P24FV16KA301.INC:1472   *ABS*:0000000a IC3TSEL0
C:\Program Files\Microchip\MPLAB ASM30 Suite\bin\..\support\PIC24F\inc/P24FV16KA301.INC:1473   *ABS*:0000000b IC3TSEL1
C:\Program Files\Microchip\MPLAB ASM30 Suite\bin\..\support\PIC24F\inc/P24FV16KA301.INC:1474   *ABS*:0000000c IC3TSEL2
C:\Program Files\Microchip\MPLAB ASM30 Suite\bin\..\support\PIC24F\inc/P24FV16KA301.INC:1490   *ABS*:00000003 TRIGMODE
C:\Program Files\Microchip\MPLAB ASM30 Suite\bin\..\support\PIC24F\inc/P24FV16KA301.INC:1491   *ABS*:0000000d OCSIDL
C:\Program Files\Microchip\MPLAB ASM30 Suite\bin\..\support\PIC24F\inc/P24FV16KA301.INC:1493   *ABS*:00000000 OCM0
C:\Program Files\Microchip\MPLAB ASM30 Suite\bin\..\support\PIC24F\inc/P24FV16KA301.INC:1494   *ABS*:00000001 OCM1
C:\Program Files\Microchip\MPLAB ASM30 Suite\bin\..\support\PIC24F\inc/P24FV16KA301.INC:1495   *ABS*:00000002 OCM2
C:\Program Files\Microchip\MPLAB ASM30 Suite\bin\..\support\PIC24F\inc/P24FV16KA301.INC:1496   *ABS*:00000004 OCFLT0
C:\Program Files\Microchip\MPLAB ASM30 Suite\bin\..\support\PIC24F\inc/P24FV16KA301.INC:1497   *ABS*:00000005 OCFLT1
C:\Program Files\Microchip\MPLAB ASM30 Suite\bin\..\support\PIC24F\inc/P24FV16KA301.INC:1498   *ABS*:00000006 OCFLT2
C:\Program Files\Microchip\MPLAB ASM30 Suite\bin\..\support\PIC24F\inc/P24FV16KA301.INC:1499   *ABS*:00000007 ENFLT0
C:\Program Files\Microchip\MPLAB ASM30 Suite\bin\..\support\PIC24F\inc/P24FV16KA301.INC:1500   *ABS*:00000008 ENFLT1
C:\Program Files\Microchip\MPLAB ASM30 Suite\bin\..\support\PIC24F\inc/P24FV16KA301.INC:1501   *ABS*:00000009 ENFLT2
C:\Program Files\Microchip\MPLAB ASM30 Suite\bin\..\support\PIC24F\inc/P24FV16KA301.INC:1502   *ABS*:0000000a OCTSEL0
C:\Program Files\Microchip\MPLAB ASM30 Suite\bin\..\support\PIC24F\inc/P24FV16KA301.INC:1503   *ABS*:0000000b OCTSEL1
C:\Program Files\Microchip\MPLAB ASM30 Suite\bin\..\support\PIC24F\inc/P24FV16KA301.INC:1504   *ABS*:0000000c OCTSEL2
C:\Program Files\Microchip\MPLAB ASM30 Suite\bin\..\support\PIC24F\inc/P24FV16KA301.INC:1508   *ABS*:00000005 OCTRIS
C:\Program Files\Microchip\MPLAB ASM30 Suite\bin\..\support\PIC24F\inc/P24FV16KA301.INC:1510   *ABS*:00000007 OCTRIG
C:\Program Files\Microchip\MPLAB ASM30 Suite\bin\..\support\PIC24F\inc/P24FV16KA301.INC:1511   *ABS*:00000008 OC32
MPLAB ASM30 Listing:  aurora9x18mk2.s 			page 50
Aurora main engine

C:\Program Files\Microchip\MPLAB ASM30 Suite\bin\..\support\PIC24F\inc/P24FV16KA301.INC:1512   *ABS*:0000000c OCMPINV
C:\Program Files\Microchip\MPLAB ASM30 Suite\bin\..\support\PIC24F\inc/P24FV16KA301.INC:1513   *ABS*:0000000d FLTTRIEN
C:\Program Files\Microchip\MPLAB ASM30 Suite\bin\..\support\PIC24F\inc/P24FV16KA301.INC:1514   *ABS*:0000000e FLTOUT
C:\Program Files\Microchip\MPLAB ASM30 Suite\bin\..\support\PIC24F\inc/P24FV16KA301.INC:1515   *ABS*:0000000f FLTMD
C:\Program Files\Microchip\MPLAB ASM30 Suite\bin\..\support\PIC24F\inc/P24FV16KA301.INC:1522   *ABS*:00000009 DB0
C:\Program Files\Microchip\MPLAB ASM30 Suite\bin\..\support\PIC24F\inc/P24FV16KA301.INC:1523   *ABS*:0000000a DB1
C:\Program Files\Microchip\MPLAB ASM30 Suite\bin\..\support\PIC24F\inc/P24FV16KA301.INC:1601   *ABS*:00000000 SEN
C:\Program Files\Microchip\MPLAB ASM30 Suite\bin\..\support\PIC24F\inc/P24FV16KA301.INC:1602   *ABS*:00000001 RSEN
C:\Program Files\Microchip\MPLAB ASM30 Suite\bin\..\support\PIC24F\inc/P24FV16KA301.INC:1603   *ABS*:00000002 PEN
C:\Program Files\Microchip\MPLAB ASM30 Suite\bin\..\support\PIC24F\inc/P24FV16KA301.INC:1604   *ABS*:00000003 RCEN
C:\Program Files\Microchip\MPLAB ASM30 Suite\bin\..\support\PIC24F\inc/P24FV16KA301.INC:1605   *ABS*:00000004 ACKEN
C:\Program Files\Microchip\MPLAB ASM30 Suite\bin\..\support\PIC24F\inc/P24FV16KA301.INC:1606   *ABS*:00000005 ACKDT
C:\Program Files\Microchip\MPLAB ASM30 Suite\bin\..\support\PIC24F\inc/P24FV16KA301.INC:1607   *ABS*:00000006 STREN
C:\Program Files\Microchip\MPLAB ASM30 Suite\bin\..\support\PIC24F\inc/P24FV16KA301.INC:1608   *ABS*:00000007 GCEN
C:\Program Files\Microchip\MPLAB ASM30 Suite\bin\..\support\PIC24F\inc/P24FV16KA301.INC:1609   *ABS*:00000008 SMEN
C:\Program Files\Microchip\MPLAB ASM30 Suite\bin\..\support\PIC24F\inc/P24FV16KA301.INC:1610   *ABS*:00000009 DISSLW
C:\Program Files\Microchip\MPLAB ASM30 Suite\bin\..\support\PIC24F\inc/P24FV16KA301.INC:1611   *ABS*:0000000a A10M
C:\Program Files\Microchip\MPLAB ASM30 Suite\bin\..\support\PIC24F\inc/P24FV16KA301.INC:1612   *ABS*:0000000b IPMIEN
C:\Program Files\Microchip\MPLAB ASM30 Suite\bin\..\support\PIC24F\inc/P24FV16KA301.INC:1613   *ABS*:0000000c SCLREL
C:\Program Files\Microchip\MPLAB ASM30 Suite\bin\..\support\PIC24F\inc/P24FV16KA301.INC:1614   *ABS*:0000000d I2CSIDL
C:\Program Files\Microchip\MPLAB ASM30 Suite\bin\..\support\PIC24F\inc/P24FV16KA301.INC:1615   *ABS*:0000000f I2CEN
C:\Program Files\Microchip\MPLAB ASM30 Suite\bin\..\support\PIC24F\inc/P24FV16KA301.INC:1619   *ABS*:00000000 TBF
C:\Program Files\Microchip\MPLAB ASM30 Suite\bin\..\support\PIC24F\inc/P24FV16KA301.INC:1620   *ABS*:00000001 RBF
C:\Program Files\Microchip\MPLAB ASM30 Suite\bin\..\support\PIC24F\inc/P24FV16KA301.INC:1621   *ABS*:00000002 R_W
C:\Program Files\Microchip\MPLAB ASM30 Suite\bin\..\support\PIC24F\inc/P24FV16KA301.INC:1622   *ABS*:00000003 S
C:\Program Files\Microchip\MPLAB ASM30 Suite\bin\..\support\PIC24F\inc/P24FV16KA301.INC:1623   *ABS*:00000004 P
C:\Program Files\Microchip\MPLAB ASM30 Suite\bin\..\support\PIC24F\inc/P24FV16KA301.INC:1624   *ABS*:00000005 D_A
C:\Program Files\Microchip\MPLAB ASM30 Suite\bin\..\support\PIC24F\inc/P24FV16KA301.INC:1625   *ABS*:00000006 I2COV
C:\Program Files\Microchip\MPLAB ASM30 Suite\bin\..\support\PIC24F\inc/P24FV16KA301.INC:1626   *ABS*:00000007 IWCOL
C:\Program Files\Microchip\MPLAB ASM30 Suite\bin\..\support\PIC24F\inc/P24FV16KA301.INC:1627   *ABS*:00000008 ADD10
C:\Program Files\Microchip\MPLAB ASM30 Suite\bin\..\support\PIC24F\inc/P24FV16KA301.INC:1628   *ABS*:00000009 GCSTAT
C:\Program Files\Microchip\MPLAB ASM30 Suite\bin\..\support\PIC24F\inc/P24FV16KA301.INC:1629   *ABS*:0000000a BCL
C:\Program Files\Microchip\MPLAB ASM30 Suite\bin\..\support\PIC24F\inc/P24FV16KA301.INC:1630   *ABS*:0000000e TRSTAT
C:\Program Files\Microchip\MPLAB ASM30 Suite\bin\..\support\PIC24F\inc/P24FV16KA301.INC:1631   *ABS*:0000000f ACKSTAT
C:\Program Files\Microchip\MPLAB ASM30 Suite\bin\..\support\PIC24F\inc/P24FV16KA301.INC:1669   *ABS*:00000000 STSEL
C:\Program Files\Microchip\MPLAB ASM30 Suite\bin\..\support\PIC24F\inc/P24FV16KA301.INC:1670   *ABS*:00000003 BRGH
C:\Program Files\Microchip\MPLAB ASM30 Suite\bin\..\support\PIC24F\inc/P24FV16KA301.INC:1671   *ABS*:00000004 RXINV
C:\Program Files\Microchip\MPLAB ASM30 Suite\bin\..\support\PIC24F\inc/P24FV16KA301.INC:1672   *ABS*:00000005 ABAUD
C:\Program Files\Microchip\MPLAB ASM30 Suite\bin\..\support\PIC24F\inc/P24FV16KA301.INC:1673   *ABS*:00000006 LPBACK
C:\Program Files\Microchip\MPLAB ASM30 Suite\bin\..\support\PIC24F\inc/P24FV16KA301.INC:1674   *ABS*:00000007 WAKE
C:\Program Files\Microchip\MPLAB ASM30 Suite\bin\..\support\PIC24F\inc/P24FV16KA301.INC:1675   *ABS*:0000000b RTSMD
C:\Program Files\Microchip\MPLAB ASM30 Suite\bin\..\support\PIC24F\inc/P24FV16KA301.INC:1676   *ABS*:0000000c IREN
C:\Program Files\Microchip\MPLAB ASM30 Suite\bin\..\support\PIC24F\inc/P24FV16KA301.INC:1677   *ABS*:0000000d USIDL
C:\Program Files\Microchip\MPLAB ASM30 Suite\bin\..\support\PIC24F\inc/P24FV16KA301.INC:1678   *ABS*:0000000f UARTEN
C:\Program Files\Microchip\MPLAB ASM30 Suite\bin\..\support\PIC24F\inc/P24FV16KA301.INC:1680   *ABS*:00000001 PDSEL0
C:\Program Files\Microchip\MPLAB ASM30 Suite\bin\..\support\PIC24F\inc/P24FV16KA301.INC:1681   *ABS*:00000002 PDSEL1
C:\Program Files\Microchip\MPLAB ASM30 Suite\bin\..\support\PIC24F\inc/P24FV16KA301.INC:1682   *ABS*:00000008 UEN0
C:\Program Files\Microchip\MPLAB ASM30 Suite\bin\..\support\PIC24F\inc/P24FV16KA301.INC:1683   *ABS*:00000009 UEN1
C:\Program Files\Microchip\MPLAB ASM30 Suite\bin\..\support\PIC24F\inc/P24FV16KA301.INC:1687   *ABS*:00000000 URXDA
C:\Program Files\Microchip\MPLAB ASM30 Suite\bin\..\support\PIC24F\inc/P24FV16KA301.INC:1688   *ABS*:00000001 OERR
C:\Program Files\Microchip\MPLAB ASM30 Suite\bin\..\support\PIC24F\inc/P24FV16KA301.INC:1689   *ABS*:00000002 FERR
C:\Program Files\Microchip\MPLAB ASM30 Suite\bin\..\support\PIC24F\inc/P24FV16KA301.INC:1690   *ABS*:00000003 PERR
C:\Program Files\Microchip\MPLAB ASM30 Suite\bin\..\support\PIC24F\inc/P24FV16KA301.INC:1691   *ABS*:00000004 RIDLE
C:\Program Files\Microchip\MPLAB ASM30 Suite\bin\..\support\PIC24F\inc/P24FV16KA301.INC:1692   *ABS*:00000005 ADDEN
C:\Program Files\Microchip\MPLAB ASM30 Suite\bin\..\support\PIC24F\inc/P24FV16KA301.INC:1693   *ABS*:00000008 TRMT
C:\Program Files\Microchip\MPLAB ASM30 Suite\bin\..\support\PIC24F\inc/P24FV16KA301.INC:1694   *ABS*:00000009 UTXBF
C:\Program Files\Microchip\MPLAB ASM30 Suite\bin\..\support\PIC24F\inc/P24FV16KA301.INC:1695   *ABS*:0000000a UTXEN
MPLAB ASM30 Listing:  aurora9x18mk2.s 			page 51
Aurora main engine

C:\Program Files\Microchip\MPLAB ASM30 Suite\bin\..\support\PIC24F\inc/P24FV16KA301.INC:1696   *ABS*:0000000b UTXBRK
C:\Program Files\Microchip\MPLAB ASM30 Suite\bin\..\support\PIC24F\inc/P24FV16KA301.INC:1697   *ABS*:0000000d UTXISEL0
C:\Program Files\Microchip\MPLAB ASM30 Suite\bin\..\support\PIC24F\inc/P24FV16KA301.INC:1698   *ABS*:0000000e UTXINV
C:\Program Files\Microchip\MPLAB ASM30 Suite\bin\..\support\PIC24F\inc/P24FV16KA301.INC:1699   *ABS*:0000000f UTXISEL1
C:\Program Files\Microchip\MPLAB ASM30 Suite\bin\..\support\PIC24F\inc/P24FV16KA301.INC:1701   *ABS*:00000006 URXISEL0
C:\Program Files\Microchip\MPLAB ASM30 Suite\bin\..\support\PIC24F\inc/P24FV16KA301.INC:1702   *ABS*:00000007 URXISEL1
C:\Program Files\Microchip\MPLAB ASM30 Suite\bin\..\support\PIC24F\inc/P24FV16KA301.INC:1706   *ABS*:00000000 UTXREG0
C:\Program Files\Microchip\MPLAB ASM30 Suite\bin\..\support\PIC24F\inc/P24FV16KA301.INC:1707   *ABS*:00000001 UTXREG1
C:\Program Files\Microchip\MPLAB ASM30 Suite\bin\..\support\PIC24F\inc/P24FV16KA301.INC:1708   *ABS*:00000002 UTXREG2
C:\Program Files\Microchip\MPLAB ASM30 Suite\bin\..\support\PIC24F\inc/P24FV16KA301.INC:1709   *ABS*:00000003 UTXREG3
C:\Program Files\Microchip\MPLAB ASM30 Suite\bin\..\support\PIC24F\inc/P24FV16KA301.INC:1710   *ABS*:00000004 UTXREG4
C:\Program Files\Microchip\MPLAB ASM30 Suite\bin\..\support\PIC24F\inc/P24FV16KA301.INC:1711   *ABS*:00000005 UTXREG5
C:\Program Files\Microchip\MPLAB ASM30 Suite\bin\..\support\PIC24F\inc/P24FV16KA301.INC:1712   *ABS*:00000006 UTXREG6
C:\Program Files\Microchip\MPLAB ASM30 Suite\bin\..\support\PIC24F\inc/P24FV16KA301.INC:1713   *ABS*:00000007 UTXREG7
C:\Program Files\Microchip\MPLAB ASM30 Suite\bin\..\support\PIC24F\inc/P24FV16KA301.INC:1714   *ABS*:00000008 UTXREG8
C:\Program Files\Microchip\MPLAB ASM30 Suite\bin\..\support\PIC24F\inc/P24FV16KA301.INC:1718   *ABS*:00000000 URXREG0
C:\Program Files\Microchip\MPLAB ASM30 Suite\bin\..\support\PIC24F\inc/P24FV16KA301.INC:1719   *ABS*:00000001 URXREG1
C:\Program Files\Microchip\MPLAB ASM30 Suite\bin\..\support\PIC24F\inc/P24FV16KA301.INC:1720   *ABS*:00000002 URXREG2
C:\Program Files\Microchip\MPLAB ASM30 Suite\bin\..\support\PIC24F\inc/P24FV16KA301.INC:1721   *ABS*:00000003 URXREG3
C:\Program Files\Microchip\MPLAB ASM30 Suite\bin\..\support\PIC24F\inc/P24FV16KA301.INC:1722   *ABS*:00000004 URXREG4
C:\Program Files\Microchip\MPLAB ASM30 Suite\bin\..\support\PIC24F\inc/P24FV16KA301.INC:1723   *ABS*:00000005 URXREG5
C:\Program Files\Microchip\MPLAB ASM30 Suite\bin\..\support\PIC24F\inc/P24FV16KA301.INC:1724   *ABS*:00000006 URXREG6
C:\Program Files\Microchip\MPLAB ASM30 Suite\bin\..\support\PIC24F\inc/P24FV16KA301.INC:1725   *ABS*:00000007 URXREG7
C:\Program Files\Microchip\MPLAB ASM30 Suite\bin\..\support\PIC24F\inc/P24FV16KA301.INC:1726   *ABS*:00000008 URXREG8
C:\Program Files\Microchip\MPLAB ASM30 Suite\bin\..\support\PIC24F\inc/P24FV16KA301.INC:1791   *ABS*:00000000 SPIRBF
C:\Program Files\Microchip\MPLAB ASM30 Suite\bin\..\support\PIC24F\inc/P24FV16KA301.INC:1792   *ABS*:00000001 SPITBF
C:\Program Files\Microchip\MPLAB ASM30 Suite\bin\..\support\PIC24F\inc/P24FV16KA301.INC:1793   *ABS*:00000005 SR1MPT
C:\Program Files\Microchip\MPLAB ASM30 Suite\bin\..\support\PIC24F\inc/P24FV16KA301.INC:1794   *ABS*:00000006 SPIROV
C:\Program Files\Microchip\MPLAB ASM30 Suite\bin\..\support\PIC24F\inc/P24FV16KA301.INC:1795   *ABS*:00000007 SRMPT
C:\Program Files\Microchip\MPLAB ASM30 Suite\bin\..\support\PIC24F\inc/P24FV16KA301.INC:1796   *ABS*:0000000d SPISIDL
C:\Program Files\Microchip\MPLAB ASM30 Suite\bin\..\support\PIC24F\inc/P24FV16KA301.INC:1797   *ABS*:0000000f SPIEN
C:\Program Files\Microchip\MPLAB ASM30 Suite\bin\..\support\PIC24F\inc/P24FV16KA301.INC:1799   *ABS*:00000002 SISEL0
C:\Program Files\Microchip\MPLAB ASM30 Suite\bin\..\support\PIC24F\inc/P24FV16KA301.INC:1800   *ABS*:00000003 SISEL1
C:\Program Files\Microchip\MPLAB ASM30 Suite\bin\..\support\PIC24F\inc/P24FV16KA301.INC:1801   *ABS*:00000004 SISEL2
C:\Program Files\Microchip\MPLAB ASM30 Suite\bin\..\support\PIC24F\inc/P24FV16KA301.INC:1802   *ABS*:00000008 SPIBEC0
C:\Program Files\Microchip\MPLAB ASM30 Suite\bin\..\support\PIC24F\inc/P24FV16KA301.INC:1803   *ABS*:00000009 SPIBEC1
C:\Program Files\Microchip\MPLAB ASM30 Suite\bin\..\support\PIC24F\inc/P24FV16KA301.INC:1804   *ABS*:0000000a SPIBEC2
C:\Program Files\Microchip\MPLAB ASM30 Suite\bin\..\support\PIC24F\inc/P24FV16KA301.INC:1808   *ABS*:00000005 MSTEN
C:\Program Files\Microchip\MPLAB ASM30 Suite\bin\..\support\PIC24F\inc/P24FV16KA301.INC:1809   *ABS*:00000006 CKP
C:\Program Files\Microchip\MPLAB ASM30 Suite\bin\..\support\PIC24F\inc/P24FV16KA301.INC:1810   *ABS*:00000007 SSEN
C:\Program Files\Microchip\MPLAB ASM30 Suite\bin\..\support\PIC24F\inc/P24FV16KA301.INC:1811   *ABS*:00000008 CKE
C:\Program Files\Microchip\MPLAB ASM30 Suite\bin\..\support\PIC24F\inc/P24FV16KA301.INC:1812   *ABS*:00000009 SMP
C:\Program Files\Microchip\MPLAB ASM30 Suite\bin\..\support\PIC24F\inc/P24FV16KA301.INC:1813   *ABS*:0000000a MODE16
C:\Program Files\Microchip\MPLAB ASM30 Suite\bin\..\support\PIC24F\inc/P24FV16KA301.INC:1814   *ABS*:0000000b DISSDO
C:\Program Files\Microchip\MPLAB ASM30 Suite\bin\..\support\PIC24F\inc/P24FV16KA301.INC:1815   *ABS*:0000000c DISSCK
C:\Program Files\Microchip\MPLAB ASM30 Suite\bin\..\support\PIC24F\inc/P24FV16KA301.INC:1817   *ABS*:00000000 PPRE0
C:\Program Files\Microchip\MPLAB ASM30 Suite\bin\..\support\PIC24F\inc/P24FV16KA301.INC:1818   *ABS*:00000001 PPRE1
C:\Program Files\Microchip\MPLAB ASM30 Suite\bin\..\support\PIC24F\inc/P24FV16KA301.INC:1819   *ABS*:00000002 SPRE0
C:\Program Files\Microchip\MPLAB ASM30 Suite\bin\..\support\PIC24F\inc/P24FV16KA301.INC:1820   *ABS*:00000003 SPRE1
C:\Program Files\Microchip\MPLAB ASM30 Suite\bin\..\support\PIC24F\inc/P24FV16KA301.INC:1821   *ABS*:00000004 SPRE2
C:\Program Files\Microchip\MPLAB ASM30 Suite\bin\..\support\PIC24F\inc/P24FV16KA301.INC:1825   *ABS*:00000000 SPIBEN
C:\Program Files\Microchip\MPLAB ASM30 Suite\bin\..\support\PIC24F\inc/P24FV16KA301.INC:1826   *ABS*:00000001 SPIFE
C:\Program Files\Microchip\MPLAB ASM30 Suite\bin\..\support\PIC24F\inc/P24FV16KA301.INC:1827   *ABS*:0000000d SPIFPOL
C:\Program Files\Microchip\MPLAB ASM30 Suite\bin\..\support\PIC24F\inc/P24FV16KA301.INC:1828   *ABS*:0000000e SPIFSD
C:\Program Files\Microchip\MPLAB ASM30 Suite\bin\..\support\PIC24F\inc/P24FV16KA301.INC:1829   *ABS*:0000000f FRMEN
C:\Program Files\Microchip\MPLAB ASM30 Suite\bin\..\support\PIC24F\inc/P24FV16KA301.INC:1875   *ABS*:00000000 TRISA0
C:\Program Files\Microchip\MPLAB ASM30 Suite\bin\..\support\PIC24F\inc/P24FV16KA301.INC:1876   *ABS*:00000001 TRISA1
MPLAB ASM30 Listing:  aurora9x18mk2.s 			page 52
Aurora main engine

C:\Program Files\Microchip\MPLAB ASM30 Suite\bin\..\support\PIC24F\inc/P24FV16KA301.INC:1877   *ABS*:00000002 TRISA2
C:\Program Files\Microchip\MPLAB ASM30 Suite\bin\..\support\PIC24F\inc/P24FV16KA301.INC:1878   *ABS*:00000003 TRISA3
C:\Program Files\Microchip\MPLAB ASM30 Suite\bin\..\support\PIC24F\inc/P24FV16KA301.INC:1879   *ABS*:00000004 TRISA4
C:\Program Files\Microchip\MPLAB ASM30 Suite\bin\..\support\PIC24F\inc/P24FV16KA301.INC:1883   *ABS*:00000000 RA0
C:\Program Files\Microchip\MPLAB ASM30 Suite\bin\..\support\PIC24F\inc/P24FV16KA301.INC:1884   *ABS*:00000001 RA1
C:\Program Files\Microchip\MPLAB ASM30 Suite\bin\..\support\PIC24F\inc/P24FV16KA301.INC:1885   *ABS*:00000002 RA2
C:\Program Files\Microchip\MPLAB ASM30 Suite\bin\..\support\PIC24F\inc/P24FV16KA301.INC:1886   *ABS*:00000003 RA3
C:\Program Files\Microchip\MPLAB ASM30 Suite\bin\..\support\PIC24F\inc/P24FV16KA301.INC:1887   *ABS*:00000004 RA4
C:\Program Files\Microchip\MPLAB ASM30 Suite\bin\..\support\PIC24F\inc/P24FV16KA301.INC:1888   *ABS*:00000005 RA5
C:\Program Files\Microchip\MPLAB ASM30 Suite\bin\..\support\PIC24F\inc/P24FV16KA301.INC:1892   *ABS*:00000000 LATA0
C:\Program Files\Microchip\MPLAB ASM30 Suite\bin\..\support\PIC24F\inc/P24FV16KA301.INC:1893   *ABS*:00000001 LATA1
C:\Program Files\Microchip\MPLAB ASM30 Suite\bin\..\support\PIC24F\inc/P24FV16KA301.INC:1894   *ABS*:00000002 LATA2
C:\Program Files\Microchip\MPLAB ASM30 Suite\bin\..\support\PIC24F\inc/P24FV16KA301.INC:1895   *ABS*:00000003 LATA3
C:\Program Files\Microchip\MPLAB ASM30 Suite\bin\..\support\PIC24F\inc/P24FV16KA301.INC:1896   *ABS*:00000004 LATA4
C:\Program Files\Microchip\MPLAB ASM30 Suite\bin\..\support\PIC24F\inc/P24FV16KA301.INC:1900   *ABS*:00000000 ODA0
C:\Program Files\Microchip\MPLAB ASM30 Suite\bin\..\support\PIC24F\inc/P24FV16KA301.INC:1901   *ABS*:00000001 ODA1
C:\Program Files\Microchip\MPLAB ASM30 Suite\bin\..\support\PIC24F\inc/P24FV16KA301.INC:1902   *ABS*:00000002 ODA2
C:\Program Files\Microchip\MPLAB ASM30 Suite\bin\..\support\PIC24F\inc/P24FV16KA301.INC:1903   *ABS*:00000003 ODA3
C:\Program Files\Microchip\MPLAB ASM30 Suite\bin\..\support\PIC24F\inc/P24FV16KA301.INC:1904   *ABS*:00000004 ODA4
C:\Program Files\Microchip\MPLAB ASM30 Suite\bin\..\support\PIC24F\inc/P24FV16KA301.INC:1908   *ABS*:00000000 TRISB0
C:\Program Files\Microchip\MPLAB ASM30 Suite\bin\..\support\PIC24F\inc/P24FV16KA301.INC:1909   *ABS*:00000001 TRISB1
C:\Program Files\Microchip\MPLAB ASM30 Suite\bin\..\support\PIC24F\inc/P24FV16KA301.INC:1910   *ABS*:00000002 TRISB2
C:\Program Files\Microchip\MPLAB ASM30 Suite\bin\..\support\PIC24F\inc/P24FV16KA301.INC:1911   *ABS*:00000004 TRISB4
C:\Program Files\Microchip\MPLAB ASM30 Suite\bin\..\support\PIC24F\inc/P24FV16KA301.INC:1912   *ABS*:00000007 TRISB7
C:\Program Files\Microchip\MPLAB ASM30 Suite\bin\..\support\PIC24F\inc/P24FV16KA301.INC:1913   *ABS*:00000008 TRISB8
C:\Program Files\Microchip\MPLAB ASM30 Suite\bin\..\support\PIC24F\inc/P24FV16KA301.INC:1914   *ABS*:00000009 TRISB9
C:\Program Files\Microchip\MPLAB ASM30 Suite\bin\..\support\PIC24F\inc/P24FV16KA301.INC:1915   *ABS*:0000000c TRISB12
C:\Program Files\Microchip\MPLAB ASM30 Suite\bin\..\support\PIC24F\inc/P24FV16KA301.INC:1916   *ABS*:0000000d TRISB13
C:\Program Files\Microchip\MPLAB ASM30 Suite\bin\..\support\PIC24F\inc/P24FV16KA301.INC:1917   *ABS*:0000000e TRISB14
C:\Program Files\Microchip\MPLAB ASM30 Suite\bin\..\support\PIC24F\inc/P24FV16KA301.INC:1918   *ABS*:0000000f TRISB15
C:\Program Files\Microchip\MPLAB ASM30 Suite\bin\..\support\PIC24F\inc/P24FV16KA301.INC:1922   *ABS*:00000000 RB0
C:\Program Files\Microchip\MPLAB ASM30 Suite\bin\..\support\PIC24F\inc/P24FV16KA301.INC:1923   *ABS*:00000001 RB1
C:\Program Files\Microchip\MPLAB ASM30 Suite\bin\..\support\PIC24F\inc/P24FV16KA301.INC:1924   *ABS*:00000002 RB2
C:\Program Files\Microchip\MPLAB ASM30 Suite\bin\..\support\PIC24F\inc/P24FV16KA301.INC:1925   *ABS*:00000004 RB4
C:\Program Files\Microchip\MPLAB ASM30 Suite\bin\..\support\PIC24F\inc/P24FV16KA301.INC:1926   *ABS*:00000007 RB7
C:\Program Files\Microchip\MPLAB ASM30 Suite\bin\..\support\PIC24F\inc/P24FV16KA301.INC:1927   *ABS*:00000008 RB8
C:\Program Files\Microchip\MPLAB ASM30 Suite\bin\..\support\PIC24F\inc/P24FV16KA301.INC:1928   *ABS*:00000009 RB9
C:\Program Files\Microchip\MPLAB ASM30 Suite\bin\..\support\PIC24F\inc/P24FV16KA301.INC:1929   *ABS*:0000000c RB12
C:\Program Files\Microchip\MPLAB ASM30 Suite\bin\..\support\PIC24F\inc/P24FV16KA301.INC:1930   *ABS*:0000000d RB13
C:\Program Files\Microchip\MPLAB ASM30 Suite\bin\..\support\PIC24F\inc/P24FV16KA301.INC:1931   *ABS*:0000000e RB14
C:\Program Files\Microchip\MPLAB ASM30 Suite\bin\..\support\PIC24F\inc/P24FV16KA301.INC:1932   *ABS*:0000000f RB15
C:\Program Files\Microchip\MPLAB ASM30 Suite\bin\..\support\PIC24F\inc/P24FV16KA301.INC:1936   *ABS*:00000000 LATB0
C:\Program Files\Microchip\MPLAB ASM30 Suite\bin\..\support\PIC24F\inc/P24FV16KA301.INC:1937   *ABS*:00000001 LATB1
C:\Program Files\Microchip\MPLAB ASM30 Suite\bin\..\support\PIC24F\inc/P24FV16KA301.INC:1938   *ABS*:00000002 LATB2
C:\Program Files\Microchip\MPLAB ASM30 Suite\bin\..\support\PIC24F\inc/P24FV16KA301.INC:1939   *ABS*:00000004 LATB4
C:\Program Files\Microchip\MPLAB ASM30 Suite\bin\..\support\PIC24F\inc/P24FV16KA301.INC:1940   *ABS*:00000007 LATB7
C:\Program Files\Microchip\MPLAB ASM30 Suite\bin\..\support\PIC24F\inc/P24FV16KA301.INC:1941   *ABS*:00000008 LATB8
C:\Program Files\Microchip\MPLAB ASM30 Suite\bin\..\support\PIC24F\inc/P24FV16KA301.INC:1942   *ABS*:00000009 LATB9
C:\Program Files\Microchip\MPLAB ASM30 Suite\bin\..\support\PIC24F\inc/P24FV16KA301.INC:1943   *ABS*:0000000c LATB12
C:\Program Files\Microchip\MPLAB ASM30 Suite\bin\..\support\PIC24F\inc/P24FV16KA301.INC:1944   *ABS*:0000000d LATB13
C:\Program Files\Microchip\MPLAB ASM30 Suite\bin\..\support\PIC24F\inc/P24FV16KA301.INC:1945   *ABS*:0000000e LATB14
C:\Program Files\Microchip\MPLAB ASM30 Suite\bin\..\support\PIC24F\inc/P24FV16KA301.INC:1946   *ABS*:0000000f LATB15
C:\Program Files\Microchip\MPLAB ASM30 Suite\bin\..\support\PIC24F\inc/P24FV16KA301.INC:1950   *ABS*:00000000 ODB0
C:\Program Files\Microchip\MPLAB ASM30 Suite\bin\..\support\PIC24F\inc/P24FV16KA301.INC:1951   *ABS*:00000001 ODB1
C:\Program Files\Microchip\MPLAB ASM30 Suite\bin\..\support\PIC24F\inc/P24FV16KA301.INC:1952   *ABS*:00000002 ODB2
C:\Program Files\Microchip\MPLAB ASM30 Suite\bin\..\support\PIC24F\inc/P24FV16KA301.INC:1953   *ABS*:00000004 ODB4
C:\Program Files\Microchip\MPLAB ASM30 Suite\bin\..\support\PIC24F\inc/P24FV16KA301.INC:1954   *ABS*:00000007 ODB7
MPLAB ASM30 Listing:  aurora9x18mk2.s 			page 53
Aurora main engine

C:\Program Files\Microchip\MPLAB ASM30 Suite\bin\..\support\PIC24F\inc/P24FV16KA301.INC:1955   *ABS*:00000008 ODB8
C:\Program Files\Microchip\MPLAB ASM30 Suite\bin\..\support\PIC24F\inc/P24FV16KA301.INC:1956   *ABS*:00000009 ODB9
C:\Program Files\Microchip\MPLAB ASM30 Suite\bin\..\support\PIC24F\inc/P24FV16KA301.INC:1957   *ABS*:0000000c ODB12
C:\Program Files\Microchip\MPLAB ASM30 Suite\bin\..\support\PIC24F\inc/P24FV16KA301.INC:1958   *ABS*:0000000d ODB13
C:\Program Files\Microchip\MPLAB ASM30 Suite\bin\..\support\PIC24F\inc/P24FV16KA301.INC:1959   *ABS*:0000000e ODB14
C:\Program Files\Microchip\MPLAB ASM30 Suite\bin\..\support\PIC24F\inc/P24FV16KA301.INC:1960   *ABS*:0000000f ODB15
C:\Program Files\Microchip\MPLAB ASM30 Suite\bin\..\support\PIC24F\inc/P24FV16KA301.INC:1964   *ABS*:00000004 SMBDEL0
C:\Program Files\Microchip\MPLAB ASM30 Suite\bin\..\support\PIC24F\inc/P24FV16KA301.INC:1965   *ABS*:00000005 SMBDEL1
C:\Program Files\Microchip\MPLAB ASM30 Suite\bin\..\support\PIC24F\inc/P24FV16KA301.INC:1969   *ABS*:00000000 DONE
C:\Program Files\Microchip\MPLAB ASM30 Suite\bin\..\support\PIC24F\inc/P24FV16KA301.INC:1970   *ABS*:00000001 SAMP
C:\Program Files\Microchip\MPLAB ASM30 Suite\bin\..\support\PIC24F\inc/P24FV16KA301.INC:1971   *ABS*:00000002 ASAM
C:\Program Files\Microchip\MPLAB ASM30 Suite\bin\..\support\PIC24F\inc/P24FV16KA301.INC:1972   *ABS*:0000000d ADSIDL
C:\Program Files\Microchip\MPLAB ASM30 Suite\bin\..\support\PIC24F\inc/P24FV16KA301.INC:1973   *ABS*:0000000f ADON
C:\Program Files\Microchip\MPLAB ASM30 Suite\bin\..\support\PIC24F\inc/P24FV16KA301.INC:1975   *ABS*:00000004 SSRC0
C:\Program Files\Microchip\MPLAB ASM30 Suite\bin\..\support\PIC24F\inc/P24FV16KA301.INC:1976   *ABS*:00000005 SSRC1
C:\Program Files\Microchip\MPLAB ASM30 Suite\bin\..\support\PIC24F\inc/P24FV16KA301.INC:1977   *ABS*:00000006 SSRC2
C:\Program Files\Microchip\MPLAB ASM30 Suite\bin\..\support\PIC24F\inc/P24FV16KA301.INC:1978   *ABS*:00000007 SSRC3
C:\Program Files\Microchip\MPLAB ASM30 Suite\bin\..\support\PIC24F\inc/P24FV16KA301.INC:1979   *ABS*:00000008 FORM0
C:\Program Files\Microchip\MPLAB ASM30 Suite\bin\..\support\PIC24F\inc/P24FV16KA301.INC:1980   *ABS*:00000009 FORM1
C:\Program Files\Microchip\MPLAB ASM30 Suite\bin\..\support\PIC24F\inc/P24FV16KA301.INC:1984   *ABS*:00000000 ALTS
C:\Program Files\Microchip\MPLAB ASM30 Suite\bin\..\support\PIC24F\inc/P24FV16KA301.INC:1985   *ABS*:00000001 BUFM
C:\Program Files\Microchip\MPLAB ASM30 Suite\bin\..\support\PIC24F\inc/P24FV16KA301.INC:1986   *ABS*:00000007 BUFS
C:\Program Files\Microchip\MPLAB ASM30 Suite\bin\..\support\PIC24F\inc/P24FV16KA301.INC:1987   *ABS*:0000000a CSCNA
C:\Program Files\Microchip\MPLAB ASM30 Suite\bin\..\support\PIC24F\inc/P24FV16KA301.INC:1988   *ABS*:0000000b BUFREGEN
C:\Program Files\Microchip\MPLAB ASM30 Suite\bin\..\support\PIC24F\inc/P24FV16KA301.INC:1989   *ABS*:0000000c OFFCAL
C:\Program Files\Microchip\MPLAB ASM30 Suite\bin\..\support\PIC24F\inc/P24FV16KA301.INC:1990   *ABS*:0000000d NVCFG
C:\Program Files\Microchip\MPLAB ASM30 Suite\bin\..\support\PIC24F\inc/P24FV16KA301.INC:1992   *ABS*:00000002 SMPI0
C:\Program Files\Microchip\MPLAB ASM30 Suite\bin\..\support\PIC24F\inc/P24FV16KA301.INC:1993   *ABS*:00000003 SMPI1
C:\Program Files\Microchip\MPLAB ASM30 Suite\bin\..\support\PIC24F\inc/P24FV16KA301.INC:1994   *ABS*:00000004 SMPI2
C:\Program Files\Microchip\MPLAB ASM30 Suite\bin\..\support\PIC24F\inc/P24FV16KA301.INC:1995   *ABS*:00000005 SMPI3
C:\Program Files\Microchip\MPLAB ASM30 Suite\bin\..\support\PIC24F\inc/P24FV16KA301.INC:1996   *ABS*:00000006 SMPI4
C:\Program Files\Microchip\MPLAB ASM30 Suite\bin\..\support\PIC24F\inc/P24FV16KA301.INC:1997   *ABS*:0000000e VCFG0
C:\Program Files\Microchip\MPLAB ASM30 Suite\bin\..\support\PIC24F\inc/P24FV16KA301.INC:1998   *ABS*:0000000f VCFG1
C:\Program Files\Microchip\MPLAB ASM30 Suite\bin\..\support\PIC24F\inc/P24FV16KA301.INC:2002   *ABS*:0000000e EXTSAM
C:\Program Files\Microchip\MPLAB ASM30 Suite\bin\..\support\PIC24F\inc/P24FV16KA301.INC:2003   *ABS*:0000000f ADRC
C:\Program Files\Microchip\MPLAB ASM30 Suite\bin\..\support\PIC24F\inc/P24FV16KA301.INC:2005   *ABS*:00000000 ADCS0
C:\Program Files\Microchip\MPLAB ASM30 Suite\bin\..\support\PIC24F\inc/P24FV16KA301.INC:2006   *ABS*:00000001 ADCS1
C:\Program Files\Microchip\MPLAB ASM30 Suite\bin\..\support\PIC24F\inc/P24FV16KA301.INC:2007   *ABS*:00000002 ADCS2
C:\Program Files\Microchip\MPLAB ASM30 Suite\bin\..\support\PIC24F\inc/P24FV16KA301.INC:2008   *ABS*:00000003 ADCS3
C:\Program Files\Microchip\MPLAB ASM30 Suite\bin\..\support\PIC24F\inc/P24FV16KA301.INC:2009   *ABS*:00000004 ADCS4
C:\Program Files\Microchip\MPLAB ASM30 Suite\bin\..\support\PIC24F\inc/P24FV16KA301.INC:2010   *ABS*:00000005 ADCS5
C:\Program Files\Microchip\MPLAB ASM30 Suite\bin\..\support\PIC24F\inc/P24FV16KA301.INC:2011   *ABS*:00000006 ADCS6
C:\Program Files\Microchip\MPLAB ASM30 Suite\bin\..\support\PIC24F\inc/P24FV16KA301.INC:2012   *ABS*:00000007 ADCS7
C:\Program Files\Microchip\MPLAB ASM30 Suite\bin\..\support\PIC24F\inc/P24FV16KA301.INC:2013   *ABS*:00000008 SAMC0
C:\Program Files\Microchip\MPLAB ASM30 Suite\bin\..\support\PIC24F\inc/P24FV16KA301.INC:2014   *ABS*:00000009 SAMC1
C:\Program Files\Microchip\MPLAB ASM30 Suite\bin\..\support\PIC24F\inc/P24FV16KA301.INC:2015   *ABS*:0000000a SAMC2
C:\Program Files\Microchip\MPLAB ASM30 Suite\bin\..\support\PIC24F\inc/P24FV16KA301.INC:2016   *ABS*:0000000b SAMC3
C:\Program Files\Microchip\MPLAB ASM30 Suite\bin\..\support\PIC24F\inc/P24FV16KA301.INC:2017   *ABS*:0000000c SAMC4
C:\Program Files\Microchip\MPLAB ASM30 Suite\bin\..\support\PIC24F\inc/P24FV16KA301.INC:2021   *ABS*:00000000 CH0SA0
C:\Program Files\Microchip\MPLAB ASM30 Suite\bin\..\support\PIC24F\inc/P24FV16KA301.INC:2022   *ABS*:00000001 CH0SA1
C:\Program Files\Microchip\MPLAB ASM30 Suite\bin\..\support\PIC24F\inc/P24FV16KA301.INC:2023   *ABS*:00000002 CH0SA2
C:\Program Files\Microchip\MPLAB ASM30 Suite\bin\..\support\PIC24F\inc/P24FV16KA301.INC:2024   *ABS*:00000003 CH0SA3
C:\Program Files\Microchip\MPLAB ASM30 Suite\bin\..\support\PIC24F\inc/P24FV16KA301.INC:2025   *ABS*:00000004 CH0SA4
C:\Program Files\Microchip\MPLAB ASM30 Suite\bin\..\support\PIC24F\inc/P24FV16KA301.INC:2026   *ABS*:00000005 CH0NA0
C:\Program Files\Microchip\MPLAB ASM30 Suite\bin\..\support\PIC24F\inc/P24FV16KA301.INC:2027   *ABS*:00000006 CH0NA1
C:\Program Files\Microchip\MPLAB ASM30 Suite\bin\..\support\PIC24F\inc/P24FV16KA301.INC:2028   *ABS*:00000007 CH0NA2
C:\Program Files\Microchip\MPLAB ASM30 Suite\bin\..\support\PIC24F\inc/P24FV16KA301.INC:2029   *ABS*:00000008 CH0SB0
MPLAB ASM30 Listing:  aurora9x18mk2.s 			page 54
Aurora main engine

C:\Program Files\Microchip\MPLAB ASM30 Suite\bin\..\support\PIC24F\inc/P24FV16KA301.INC:2030   *ABS*:00000009 CH0SB1
C:\Program Files\Microchip\MPLAB ASM30 Suite\bin\..\support\PIC24F\inc/P24FV16KA301.INC:2031   *ABS*:0000000a CH0SB2
C:\Program Files\Microchip\MPLAB ASM30 Suite\bin\..\support\PIC24F\inc/P24FV16KA301.INC:2032   *ABS*:0000000b CH0SB3
C:\Program Files\Microchip\MPLAB ASM30 Suite\bin\..\support\PIC24F\inc/P24FV16KA301.INC:2033   *ABS*:0000000c CH0SB4
C:\Program Files\Microchip\MPLAB ASM30 Suite\bin\..\support\PIC24F\inc/P24FV16KA301.INC:2034   *ABS*:0000000d CH0NB0
C:\Program Files\Microchip\MPLAB ASM30 Suite\bin\..\support\PIC24F\inc/P24FV16KA301.INC:2035   *ABS*:0000000e CH0NB1
C:\Program Files\Microchip\MPLAB ASM30 Suite\bin\..\support\PIC24F\inc/P24FV16KA301.INC:2036   *ABS*:0000000f CH0NB2
C:\Program Files\Microchip\MPLAB ASM30 Suite\bin\..\support\PIC24F\inc/P24FV16KA301.INC:2040   *ABS*:00000000 CSS16
C:\Program Files\Microchip\MPLAB ASM30 Suite\bin\..\support\PIC24F\inc/P24FV16KA301.INC:2041   *ABS*:00000001 CSS17
C:\Program Files\Microchip\MPLAB ASM30 Suite\bin\..\support\PIC24F\inc/P24FV16KA301.INC:2042   *ABS*:0000000a CSS26
C:\Program Files\Microchip\MPLAB ASM30 Suite\bin\..\support\PIC24F\inc/P24FV16KA301.INC:2043   *ABS*:0000000b CSS27
C:\Program Files\Microchip\MPLAB ASM30 Suite\bin\..\support\PIC24F\inc/P24FV16KA301.INC:2044   *ABS*:0000000c CSS28
C:\Program Files\Microchip\MPLAB ASM30 Suite\bin\..\support\PIC24F\inc/P24FV16KA301.INC:2045   *ABS*:0000000d CSS29
C:\Program Files\Microchip\MPLAB ASM30 Suite\bin\..\support\PIC24F\inc/P24FV16KA301.INC:2046   *ABS*:0000000e CSS30
C:\Program Files\Microchip\MPLAB ASM30 Suite\bin\..\support\PIC24F\inc/P24FV16KA301.INC:2048   *ABS*:00000000 CSSL16
C:\Program Files\Microchip\MPLAB ASM30 Suite\bin\..\support\PIC24F\inc/P24FV16KA301.INC:2049   *ABS*:00000001 CSSL17
C:\Program Files\Microchip\MPLAB ASM30 Suite\bin\..\support\PIC24F\inc/P24FV16KA301.INC:2050   *ABS*:0000000a CSSL26
C:\Program Files\Microchip\MPLAB ASM30 Suite\bin\..\support\PIC24F\inc/P24FV16KA301.INC:2051   *ABS*:0000000b CSSL27
C:\Program Files\Microchip\MPLAB ASM30 Suite\bin\..\support\PIC24F\inc/P24FV16KA301.INC:2052   *ABS*:0000000c CSSL28
C:\Program Files\Microchip\MPLAB ASM30 Suite\bin\..\support\PIC24F\inc/P24FV16KA301.INC:2053   *ABS*:0000000d CSSL29
C:\Program Files\Microchip\MPLAB ASM30 Suite\bin\..\support\PIC24F\inc/P24FV16KA301.INC:2054   *ABS*:0000000e CSSL30
C:\Program Files\Microchip\MPLAB ASM30 Suite\bin\..\support\PIC24F\inc/P24FV16KA301.INC:2058   *ABS*:00000000 CSS0
C:\Program Files\Microchip\MPLAB ASM30 Suite\bin\..\support\PIC24F\inc/P24FV16KA301.INC:2059   *ABS*:00000001 CSS1
C:\Program Files\Microchip\MPLAB ASM30 Suite\bin\..\support\PIC24F\inc/P24FV16KA301.INC:2060   *ABS*:00000002 CSS2
C:\Program Files\Microchip\MPLAB ASM30 Suite\bin\..\support\PIC24F\inc/P24FV16KA301.INC:2061   *ABS*:00000003 CSS3
C:\Program Files\Microchip\MPLAB ASM30 Suite\bin\..\support\PIC24F\inc/P24FV16KA301.INC:2062   *ABS*:00000004 CSS4
C:\Program Files\Microchip\MPLAB ASM30 Suite\bin\..\support\PIC24F\inc/P24FV16KA301.INC:2063   *ABS*:00000005 CSS5
C:\Program Files\Microchip\MPLAB ASM30 Suite\bin\..\support\PIC24F\inc/P24FV16KA301.INC:2064   *ABS*:00000006 CSS6
C:\Program Files\Microchip\MPLAB ASM30 Suite\bin\..\support\PIC24F\inc/P24FV16KA301.INC:2065   *ABS*:00000007 CSS7
C:\Program Files\Microchip\MPLAB ASM30 Suite\bin\..\support\PIC24F\inc/P24FV16KA301.INC:2066   *ABS*:00000008 CSS8
C:\Program Files\Microchip\MPLAB ASM30 Suite\bin\..\support\PIC24F\inc/P24FV16KA301.INC:2067   *ABS*:00000009 CSS9
C:\Program Files\Microchip\MPLAB ASM30 Suite\bin\..\support\PIC24F\inc/P24FV16KA301.INC:2068   *ABS*:0000000a CSS10
C:\Program Files\Microchip\MPLAB ASM30 Suite\bin\..\support\PIC24F\inc/P24FV16KA301.INC:2069   *ABS*:0000000b CSS11
C:\Program Files\Microchip\MPLAB ASM30 Suite\bin\..\support\PIC24F\inc/P24FV16KA301.INC:2070   *ABS*:0000000c CSS12
C:\Program Files\Microchip\MPLAB ASM30 Suite\bin\..\support\PIC24F\inc/P24FV16KA301.INC:2071   *ABS*:0000000d CSS13
C:\Program Files\Microchip\MPLAB ASM30 Suite\bin\..\support\PIC24F\inc/P24FV16KA301.INC:2072   *ABS*:0000000e CSS14
C:\Program Files\Microchip\MPLAB ASM30 Suite\bin\..\support\PIC24F\inc/P24FV16KA301.INC:2073   *ABS*:0000000f CSS15
C:\Program Files\Microchip\MPLAB ASM30 Suite\bin\..\support\PIC24F\inc/P24FV16KA301.INC:2075   *ABS*:00000000 CSSL0
C:\Program Files\Microchip\MPLAB ASM30 Suite\bin\..\support\PIC24F\inc/P24FV16KA301.INC:2076   *ABS*:00000001 CSSL1
C:\Program Files\Microchip\MPLAB ASM30 Suite\bin\..\support\PIC24F\inc/P24FV16KA301.INC:2077   *ABS*:00000002 CSSL2
C:\Program Files\Microchip\MPLAB ASM30 Suite\bin\..\support\PIC24F\inc/P24FV16KA301.INC:2078   *ABS*:00000003 CSSL3
C:\Program Files\Microchip\MPLAB ASM30 Suite\bin\..\support\PIC24F\inc/P24FV16KA301.INC:2079   *ABS*:00000004 CSSL4
C:\Program Files\Microchip\MPLAB ASM30 Suite\bin\..\support\PIC24F\inc/P24FV16KA301.INC:2080   *ABS*:00000005 CSSL5
C:\Program Files\Microchip\MPLAB ASM30 Suite\bin\..\support\PIC24F\inc/P24FV16KA301.INC:2081   *ABS*:00000006 CSSL6
C:\Program Files\Microchip\MPLAB ASM30 Suite\bin\..\support\PIC24F\inc/P24FV16KA301.INC:2082   *ABS*:00000007 CSSL7
C:\Program Files\Microchip\MPLAB ASM30 Suite\bin\..\support\PIC24F\inc/P24FV16KA301.INC:2083   *ABS*:00000008 CSSL8
C:\Program Files\Microchip\MPLAB ASM30 Suite\bin\..\support\PIC24F\inc/P24FV16KA301.INC:2084   *ABS*:00000009 CSSL9
C:\Program Files\Microchip\MPLAB ASM30 Suite\bin\..\support\PIC24F\inc/P24FV16KA301.INC:2085   *ABS*:0000000a CSSL10
C:\Program Files\Microchip\MPLAB ASM30 Suite\bin\..\support\PIC24F\inc/P24FV16KA301.INC:2086   *ABS*:0000000b CSSL11
C:\Program Files\Microchip\MPLAB ASM30 Suite\bin\..\support\PIC24F\inc/P24FV16KA301.INC:2087   *ABS*:0000000c CSSL12
C:\Program Files\Microchip\MPLAB ASM30 Suite\bin\..\support\PIC24F\inc/P24FV16KA301.INC:2088   *ABS*:0000000d CSSL13
C:\Program Files\Microchip\MPLAB ASM30 Suite\bin\..\support\PIC24F\inc/P24FV16KA301.INC:2089   *ABS*:0000000e CSSL14
C:\Program Files\Microchip\MPLAB ASM30 Suite\bin\..\support\PIC24F\inc/P24FV16KA301.INC:2090   *ABS*:0000000f CSSL15
C:\Program Files\Microchip\MPLAB ASM30 Suite\bin\..\support\PIC24F\inc/P24FV16KA301.INC:2094   *ABS*:0000000c BGREQ
C:\Program Files\Microchip\MPLAB ASM30 Suite\bin\..\support\PIC24F\inc/P24FV16KA301.INC:2095   *ABS*:0000000d CTMUREQ
C:\Program Files\Microchip\MPLAB ASM30 Suite\bin\..\support\PIC24F\inc/P24FV16KA301.INC:2096   *ABS*:0000000e LPEN
C:\Program Files\Microchip\MPLAB ASM30 Suite\bin\..\support\PIC24F\inc/P24FV16KA301.INC:2097   *ABS*:0000000f ASEN
MPLAB ASM30 Listing:  aurora9x18mk2.s 			page 55
Aurora main engine

C:\Program Files\Microchip\MPLAB ASM30 Suite\bin\..\support\PIC24F\inc/P24FV16KA301.INC:2099   *ABS*:00000000 CM0
C:\Program Files\Microchip\MPLAB ASM30 Suite\bin\..\support\PIC24F\inc/P24FV16KA301.INC:2100   *ABS*:00000001 CM1
C:\Program Files\Microchip\MPLAB ASM30 Suite\bin\..\support\PIC24F\inc/P24FV16KA301.INC:2101   *ABS*:00000002 WM0
C:\Program Files\Microchip\MPLAB ASM30 Suite\bin\..\support\PIC24F\inc/P24FV16KA301.INC:2102   *ABS*:00000003 WM1
C:\Program Files\Microchip\MPLAB ASM30 Suite\bin\..\support\PIC24F\inc/P24FV16KA301.INC:2103   *ABS*:00000008 ASINT0
C:\Program Files\Microchip\MPLAB ASM30 Suite\bin\..\support\PIC24F\inc/P24FV16KA301.INC:2104   *ABS*:00000009 ASINT1
C:\Program Files\Microchip\MPLAB ASM30 Suite\bin\..\support\PIC24F\inc/P24FV16KA301.INC:2108   *ABS*:00000000 CHH16
C:\Program Files\Microchip\MPLAB ASM30 Suite\bin\..\support\PIC24F\inc/P24FV16KA301.INC:2109   *ABS*:00000001 CHH17
C:\Program Files\Microchip\MPLAB ASM30 Suite\bin\..\support\PIC24F\inc/P24FV16KA301.INC:2113   *ABS*:00000000 CHH0
C:\Program Files\Microchip\MPLAB ASM30 Suite\bin\..\support\PIC24F\inc/P24FV16KA301.INC:2114   *ABS*:00000001 CHH1
C:\Program Files\Microchip\MPLAB ASM30 Suite\bin\..\support\PIC24F\inc/P24FV16KA301.INC:2115   *ABS*:00000002 CHH2
C:\Program Files\Microchip\MPLAB ASM30 Suite\bin\..\support\PIC24F\inc/P24FV16KA301.INC:2116   *ABS*:00000003 CHH3
C:\Program Files\Microchip\MPLAB ASM30 Suite\bin\..\support\PIC24F\inc/P24FV16KA301.INC:2117   *ABS*:00000004 CHH4
C:\Program Files\Microchip\MPLAB ASM30 Suite\bin\..\support\PIC24F\inc/P24FV16KA301.INC:2118   *ABS*:00000005 CHH5
C:\Program Files\Microchip\MPLAB ASM30 Suite\bin\..\support\PIC24F\inc/P24FV16KA301.INC:2119   *ABS*:00000006 CHH6
C:\Program Files\Microchip\MPLAB ASM30 Suite\bin\..\support\PIC24F\inc/P24FV16KA301.INC:2120   *ABS*:00000007 CHH7
C:\Program Files\Microchip\MPLAB ASM30 Suite\bin\..\support\PIC24F\inc/P24FV16KA301.INC:2121   *ABS*:00000008 CHH8
C:\Program Files\Microchip\MPLAB ASM30 Suite\bin\..\support\PIC24F\inc/P24FV16KA301.INC:2122   *ABS*:00000009 CHH9
C:\Program Files\Microchip\MPLAB ASM30 Suite\bin\..\support\PIC24F\inc/P24FV16KA301.INC:2123   *ABS*:0000000a CHH10
C:\Program Files\Microchip\MPLAB ASM30 Suite\bin\..\support\PIC24F\inc/P24FV16KA301.INC:2124   *ABS*:0000000b CHH11
C:\Program Files\Microchip\MPLAB ASM30 Suite\bin\..\support\PIC24F\inc/P24FV16KA301.INC:2125   *ABS*:0000000c CHH12
C:\Program Files\Microchip\MPLAB ASM30 Suite\bin\..\support\PIC24F\inc/P24FV16KA301.INC:2126   *ABS*:0000000d CHH13
C:\Program Files\Microchip\MPLAB ASM30 Suite\bin\..\support\PIC24F\inc/P24FV16KA301.INC:2127   *ABS*:0000000e CHH14
C:\Program Files\Microchip\MPLAB ASM30 Suite\bin\..\support\PIC24F\inc/P24FV16KA301.INC:2128   *ABS*:0000000f CHH15
C:\Program Files\Microchip\MPLAB ASM30 Suite\bin\..\support\PIC24F\inc/P24FV16KA301.INC:2132   *ABS*:00000008 CTTRIG
C:\Program Files\Microchip\MPLAB ASM30 Suite\bin\..\support\PIC24F\inc/P24FV16KA301.INC:2133   *ABS*:00000009 IDISSEN
C:\Program Files\Microchip\MPLAB ASM30 Suite\bin\..\support\PIC24F\inc/P24FV16KA301.INC:2134   *ABS*:0000000a EDGSEQEN
C:\Program Files\Microchip\MPLAB ASM30 Suite\bin\..\support\PIC24F\inc/P24FV16KA301.INC:2135   *ABS*:0000000b EDGEN
C:\Program Files\Microchip\MPLAB ASM30 Suite\bin\..\support\PIC24F\inc/P24FV16KA301.INC:2136   *ABS*:0000000c TGEN
C:\Program Files\Microchip\MPLAB ASM30 Suite\bin\..\support\PIC24F\inc/P24FV16KA301.INC:2137   *ABS*:0000000d CTMUSIDL
C:\Program Files\Microchip\MPLAB ASM30 Suite\bin\..\support\PIC24F\inc/P24FV16KA301.INC:2138   *ABS*:0000000f CTMUEN
C:\Program Files\Microchip\MPLAB ASM30 Suite\bin\..\support\PIC24F\inc/P24FV16KA301.INC:2142   *ABS*:00000006 EDG2POL
C:\Program Files\Microchip\MPLAB ASM30 Suite\bin\..\support\PIC24F\inc/P24FV16KA301.INC:2143   *ABS*:00000007 EDG2EDGE
C:\Program Files\Microchip\MPLAB ASM30 Suite\bin\..\support\PIC24F\inc/P24FV16KA301.INC:2144   *ABS*:00000008 EDG1
C:\Program Files\Microchip\MPLAB ASM30 Suite\bin\..\support\PIC24F\inc/P24FV16KA301.INC:2145   *ABS*:00000009 EDG2
C:\Program Files\Microchip\MPLAB ASM30 Suite\bin\..\support\PIC24F\inc/P24FV16KA301.INC:2146   *ABS*:0000000e EDG1POL
C:\Program Files\Microchip\MPLAB ASM30 Suite\bin\..\support\PIC24F\inc/P24FV16KA301.INC:2147   *ABS*:0000000f EDG1EDGE
C:\Program Files\Microchip\MPLAB ASM30 Suite\bin\..\support\PIC24F\inc/P24FV16KA301.INC:2149   *ABS*:00000002 EDG1SEL0
C:\Program Files\Microchip\MPLAB ASM30 Suite\bin\..\support\PIC24F\inc/P24FV16KA301.INC:2150   *ABS*:00000003 EDG1SEL1
C:\Program Files\Microchip\MPLAB ASM30 Suite\bin\..\support\PIC24F\inc/P24FV16KA301.INC:2151   *ABS*:00000004 EDG1SEL2
C:\Program Files\Microchip\MPLAB ASM30 Suite\bin\..\support\PIC24F\inc/P24FV16KA301.INC:2152   *ABS*:00000005 EDG1SEL3
C:\Program Files\Microchip\MPLAB ASM30 Suite\bin\..\support\PIC24F\inc/P24FV16KA301.INC:2153   *ABS*:0000000a EDG2SEL0
C:\Program Files\Microchip\MPLAB ASM30 Suite\bin\..\support\PIC24F\inc/P24FV16KA301.INC:2154   *ABS*:0000000b EDG2SEL1
C:\Program Files\Microchip\MPLAB ASM30 Suite\bin\..\support\PIC24F\inc/P24FV16KA301.INC:2155   *ABS*:0000000c EDG2SEL2
C:\Program Files\Microchip\MPLAB ASM30 Suite\bin\..\support\PIC24F\inc/P24FV16KA301.INC:2156   *ABS*:0000000d EDG2SEL3
C:\Program Files\Microchip\MPLAB ASM30 Suite\bin\..\support\PIC24F\inc/P24FV16KA301.INC:2160   *ABS*:00000008 IRNG0
C:\Program Files\Microchip\MPLAB ASM30 Suite\bin\..\support\PIC24F\inc/P24FV16KA301.INC:2161   *ABS*:00000009 IRNG1
C:\Program Files\Microchip\MPLAB ASM30 Suite\bin\..\support\PIC24F\inc/P24FV16KA301.INC:2162   *ABS*:0000000a ITRIM0
C:\Program Files\Microchip\MPLAB ASM30 Suite\bin\..\support\PIC24F\inc/P24FV16KA301.INC:2163   *ABS*:0000000b ITRIM1
C:\Program Files\Microchip\MPLAB ASM30 Suite\bin\..\support\PIC24F\inc/P24FV16KA301.INC:2164   *ABS*:0000000c ITRIM2
C:\Program Files\Microchip\MPLAB ASM30 Suite\bin\..\support\PIC24F\inc/P24FV16KA301.INC:2165   *ABS*:0000000d ITRIM3
C:\Program Files\Microchip\MPLAB ASM30 Suite\bin\..\support\PIC24F\inc/P24FV16KA301.INC:2166   *ABS*:0000000e ITRIM4
C:\Program Files\Microchip\MPLAB ASM30 Suite\bin\..\support\PIC24F\inc/P24FV16KA301.INC:2167   *ABS*:0000000f ITRIM5
C:\Program Files\Microchip\MPLAB ASM30 Suite\bin\..\support\PIC24F\inc/P24FV16KA301.INC:2171   *ABS*:00000000 CTMEN16
C:\Program Files\Microchip\MPLAB ASM30 Suite\bin\..\support\PIC24F\inc/P24FV16KA301.INC:2172   *ABS*:00000001 CTMEN17
C:\Program Files\Microchip\MPLAB ASM30 Suite\bin\..\support\PIC24F\inc/P24FV16KA301.INC:2173   *ABS*:0000000a CTMEN26
C:\Program Files\Microchip\MPLAB ASM30 Suite\bin\..\support\PIC24F\inc/P24FV16KA301.INC:2174   *ABS*:0000000b CTMEN27
MPLAB ASM30 Listing:  aurora9x18mk2.s 			page 56
Aurora main engine

C:\Program Files\Microchip\MPLAB ASM30 Suite\bin\..\support\PIC24F\inc/P24FV16KA301.INC:2175   *ABS*:0000000c CTMEN28
C:\Program Files\Microchip\MPLAB ASM30 Suite\bin\..\support\PIC24F\inc/P24FV16KA301.INC:2176   *ABS*:0000000d CTMEN29
C:\Program Files\Microchip\MPLAB ASM30 Suite\bin\..\support\PIC24F\inc/P24FV16KA301.INC:2177   *ABS*:0000000e CTMEN30
C:\Program Files\Microchip\MPLAB ASM30 Suite\bin\..\support\PIC24F\inc/P24FV16KA301.INC:2181   *ABS*:00000000 CTMEN0
C:\Program Files\Microchip\MPLAB ASM30 Suite\bin\..\support\PIC24F\inc/P24FV16KA301.INC:2182   *ABS*:00000001 CTMEN1
C:\Program Files\Microchip\MPLAB ASM30 Suite\bin\..\support\PIC24F\inc/P24FV16KA301.INC:2183   *ABS*:00000002 CTMEN2
C:\Program Files\Microchip\MPLAB ASM30 Suite\bin\..\support\PIC24F\inc/P24FV16KA301.INC:2184   *ABS*:00000003 CTMEN3
C:\Program Files\Microchip\MPLAB ASM30 Suite\bin\..\support\PIC24F\inc/P24FV16KA301.INC:2185   *ABS*:00000004 CTMEN4
C:\Program Files\Microchip\MPLAB ASM30 Suite\bin\..\support\PIC24F\inc/P24FV16KA301.INC:2186   *ABS*:00000005 CTMEN5
C:\Program Files\Microchip\MPLAB ASM30 Suite\bin\..\support\PIC24F\inc/P24FV16KA301.INC:2187   *ABS*:00000006 CTMEN6
C:\Program Files\Microchip\MPLAB ASM30 Suite\bin\..\support\PIC24F\inc/P24FV16KA301.INC:2188   *ABS*:00000007 CTMEN7
C:\Program Files\Microchip\MPLAB ASM30 Suite\bin\..\support\PIC24F\inc/P24FV16KA301.INC:2189   *ABS*:00000008 CTMEN8
C:\Program Files\Microchip\MPLAB ASM30 Suite\bin\..\support\PIC24F\inc/P24FV16KA301.INC:2190   *ABS*:00000009 CTMEN9
C:\Program Files\Microchip\MPLAB ASM30 Suite\bin\..\support\PIC24F\inc/P24FV16KA301.INC:2191   *ABS*:0000000a CTMEN10
C:\Program Files\Microchip\MPLAB ASM30 Suite\bin\..\support\PIC24F\inc/P24FV16KA301.INC:2192   *ABS*:0000000b CTMEN11
C:\Program Files\Microchip\MPLAB ASM30 Suite\bin\..\support\PIC24F\inc/P24FV16KA301.INC:2193   *ABS*:0000000c CTMEN12
C:\Program Files\Microchip\MPLAB ASM30 Suite\bin\..\support\PIC24F\inc/P24FV16KA301.INC:2194   *ABS*:0000000d CTMEN13
C:\Program Files\Microchip\MPLAB ASM30 Suite\bin\..\support\PIC24F\inc/P24FV16KA301.INC:2195   *ABS*:0000000e CTMEN14
C:\Program Files\Microchip\MPLAB ASM30 Suite\bin\..\support\PIC24F\inc/P24FV16KA301.INC:2196   *ABS*:0000000f CTMEN15
C:\Program Files\Microchip\MPLAB ASM30 Suite\bin\..\support\PIC24F\inc/P24FV16KA301.INC:2200   *ABS*:00000000 ANSA0
C:\Program Files\Microchip\MPLAB ASM30 Suite\bin\..\support\PIC24F\inc/P24FV16KA301.INC:2201   *ABS*:00000001 ANSA1
C:\Program Files\Microchip\MPLAB ASM30 Suite\bin\..\support\PIC24F\inc/P24FV16KA301.INC:2202   *ABS*:00000002 ANSA2
C:\Program Files\Microchip\MPLAB ASM30 Suite\bin\..\support\PIC24F\inc/P24FV16KA301.INC:2203   *ABS*:00000003 ANSA3
C:\Program Files\Microchip\MPLAB ASM30 Suite\bin\..\support\PIC24F\inc/P24FV16KA301.INC:2214   *ABS*:00000000 ANSB0
C:\Program Files\Microchip\MPLAB ASM30 Suite\bin\..\support\PIC24F\inc/P24FV16KA301.INC:2215   *ABS*:00000001 ANSB1
C:\Program Files\Microchip\MPLAB ASM30 Suite\bin\..\support\PIC24F\inc/P24FV16KA301.INC:2216   *ABS*:00000002 ANSB2
C:\Program Files\Microchip\MPLAB ASM30 Suite\bin\..\support\PIC24F\inc/P24FV16KA301.INC:2217   *ABS*:00000004 ANSB4
C:\Program Files\Microchip\MPLAB ASM30 Suite\bin\..\support\PIC24F\inc/P24FV16KA301.INC:2218   *ABS*:0000000c ANSB12
C:\Program Files\Microchip\MPLAB ASM30 Suite\bin\..\support\PIC24F\inc/P24FV16KA301.INC:2219   *ABS*:0000000d ANSB13
C:\Program Files\Microchip\MPLAB ASM30 Suite\bin\..\support\PIC24F\inc/P24FV16KA301.INC:2220   *ABS*:0000000e ANSB14
C:\Program Files\Microchip\MPLAB ASM30 Suite\bin\..\support\PIC24F\inc/P24FV16KA301.INC:2221   *ABS*:0000000f ANSB15
C:\Program Files\Microchip\MPLAB ASM30 Suite\bin\..\support\PIC24F\inc/P24FV16KA301.INC:2236   *ABS*:0000000e CHIME
C:\Program Files\Microchip\MPLAB ASM30 Suite\bin\..\support\PIC24F\inc/P24FV16KA301.INC:2237   *ABS*:0000000f ALRMEN
C:\Program Files\Microchip\MPLAB ASM30 Suite\bin\..\support\PIC24F\inc/P24FV16KA301.INC:2239   *ABS*:00000000 ARPT0
C:\Program Files\Microchip\MPLAB ASM30 Suite\bin\..\support\PIC24F\inc/P24FV16KA301.INC:2240   *ABS*:00000001 ARPT1
C:\Program Files\Microchip\MPLAB ASM30 Suite\bin\..\support\PIC24F\inc/P24FV16KA301.INC:2241   *ABS*:00000002 ARPT2
C:\Program Files\Microchip\MPLAB ASM30 Suite\bin\..\support\PIC24F\inc/P24FV16KA301.INC:2242   *ABS*:00000003 ARPT3
C:\Program Files\Microchip\MPLAB ASM30 Suite\bin\..\support\PIC24F\inc/P24FV16KA301.INC:2243   *ABS*:00000004 ARPT4
C:\Program Files\Microchip\MPLAB ASM30 Suite\bin\..\support\PIC24F\inc/P24FV16KA301.INC:2244   *ABS*:00000005 ARPT5
C:\Program Files\Microchip\MPLAB ASM30 Suite\bin\..\support\PIC24F\inc/P24FV16KA301.INC:2245   *ABS*:00000006 ARPT6
C:\Program Files\Microchip\MPLAB ASM30 Suite\bin\..\support\PIC24F\inc/P24FV16KA301.INC:2246   *ABS*:00000007 ARPT7
C:\Program Files\Microchip\MPLAB ASM30 Suite\bin\..\support\PIC24F\inc/P24FV16KA301.INC:2247   *ABS*:00000008 ALRMPTR0
C:\Program Files\Microchip\MPLAB ASM30 Suite\bin\..\support\PIC24F\inc/P24FV16KA301.INC:2248   *ABS*:00000009 ALRMPTR1
C:\Program Files\Microchip\MPLAB ASM30 Suite\bin\..\support\PIC24F\inc/P24FV16KA301.INC:2249   *ABS*:0000000a AMASK0
C:\Program Files\Microchip\MPLAB ASM30 Suite\bin\..\support\PIC24F\inc/P24FV16KA301.INC:2250   *ABS*:0000000b AMASK1
C:\Program Files\Microchip\MPLAB ASM30 Suite\bin\..\support\PIC24F\inc/P24FV16KA301.INC:2251   *ABS*:0000000c AMASK2
C:\Program Files\Microchip\MPLAB ASM30 Suite\bin\..\support\PIC24F\inc/P24FV16KA301.INC:2252   *ABS*:0000000d AMASK3
C:\Program Files\Microchip\MPLAB ASM30 Suite\bin\..\support\PIC24F\inc/P24FV16KA301.INC:2256   *ABS*:0000000a RTCOE
C:\Program Files\Microchip\MPLAB ASM30 Suite\bin\..\support\PIC24F\inc/P24FV16KA301.INC:2257   *ABS*:0000000b HALFSEC
C:\Program Files\Microchip\MPLAB ASM30 Suite\bin\..\support\PIC24F\inc/P24FV16KA301.INC:2258   *ABS*:0000000c RTCSYNC
C:\Program Files\Microchip\MPLAB ASM30 Suite\bin\..\support\PIC24F\inc/P24FV16KA301.INC:2259   *ABS*:0000000d RTCWREN
C:\Program Files\Microchip\MPLAB ASM30 Suite\bin\..\support\PIC24F\inc/P24FV16KA301.INC:2260   *ABS*:0000000f RTCEN
C:\Program Files\Microchip\MPLAB ASM30 Suite\bin\..\support\PIC24F\inc/P24FV16KA301.INC:2262   *ABS*:00000000 CAL0
C:\Program Files\Microchip\MPLAB ASM30 Suite\bin\..\support\PIC24F\inc/P24FV16KA301.INC:2263   *ABS*:00000001 CAL1
C:\Program Files\Microchip\MPLAB ASM30 Suite\bin\..\support\PIC24F\inc/P24FV16KA301.INC:2264   *ABS*:00000002 CAL2
C:\Program Files\Microchip\MPLAB ASM30 Suite\bin\..\support\PIC24F\inc/P24FV16KA301.INC:2265   *ABS*:00000003 CAL3
C:\Program Files\Microchip\MPLAB ASM30 Suite\bin\..\support\PIC24F\inc/P24FV16KA301.INC:2266   *ABS*:00000004 CAL4
MPLAB ASM30 Listing:  aurora9x18mk2.s 			page 57
Aurora main engine

C:\Program Files\Microchip\MPLAB ASM30 Suite\bin\..\support\PIC24F\inc/P24FV16KA301.INC:2267   *ABS*:00000005 CAL5
C:\Program Files\Microchip\MPLAB ASM30 Suite\bin\..\support\PIC24F\inc/P24FV16KA301.INC:2268   *ABS*:00000006 CAL6
C:\Program Files\Microchip\MPLAB ASM30 Suite\bin\..\support\PIC24F\inc/P24FV16KA301.INC:2269   *ABS*:00000007 CAL7
C:\Program Files\Microchip\MPLAB ASM30 Suite\bin\..\support\PIC24F\inc/P24FV16KA301.INC:2270   *ABS*:00000008 RTCPTR0
C:\Program Files\Microchip\MPLAB ASM30 Suite\bin\..\support\PIC24F\inc/P24FV16KA301.INC:2271   *ABS*:00000009 RTCPTR1
C:\Program Files\Microchip\MPLAB ASM30 Suite\bin\..\support\PIC24F\inc/P24FV16KA301.INC:2275   *ABS*:0000000c PWCSPRE
C:\Program Files\Microchip\MPLAB ASM30 Suite\bin\..\support\PIC24F\inc/P24FV16KA301.INC:2276   *ABS*:0000000d PWCCPRE
C:\Program Files\Microchip\MPLAB ASM30 Suite\bin\..\support\PIC24F\inc/P24FV16KA301.INC:2277   *ABS*:0000000e PWCPOL
C:\Program Files\Microchip\MPLAB ASM30 Suite\bin\..\support\PIC24F\inc/P24FV16KA301.INC:2278   *ABS*:0000000f PWCEN
C:\Program Files\Microchip\MPLAB ASM30 Suite\bin\..\support\PIC24F\inc/P24FV16KA301.INC:2282   *ABS*:00000000 C1OUT
C:\Program Files\Microchip\MPLAB ASM30 Suite\bin\..\support\PIC24F\inc/P24FV16KA301.INC:2283   *ABS*:00000001 C2OUT
C:\Program Files\Microchip\MPLAB ASM30 Suite\bin\..\support\PIC24F\inc/P24FV16KA301.INC:2284   *ABS*:00000002 C3OUT
C:\Program Files\Microchip\MPLAB ASM30 Suite\bin\..\support\PIC24F\inc/P24FV16KA301.INC:2285   *ABS*:00000008 C1EVT
C:\Program Files\Microchip\MPLAB ASM30 Suite\bin\..\support\PIC24F\inc/P24FV16KA301.INC:2286   *ABS*:00000009 C2EVT
C:\Program Files\Microchip\MPLAB ASM30 Suite\bin\..\support\PIC24F\inc/P24FV16KA301.INC:2287   *ABS*:0000000a C3EVT
C:\Program Files\Microchip\MPLAB ASM30 Suite\bin\..\support\PIC24F\inc/P24FV16KA301.INC:2288   *ABS*:0000000f CMIDL
C:\Program Files\Microchip\MPLAB ASM30 Suite\bin\..\support\PIC24F\inc/P24FV16KA301.INC:2292   *ABS*:00000004 CVRSS
C:\Program Files\Microchip\MPLAB ASM30 Suite\bin\..\support\PIC24F\inc/P24FV16KA301.INC:2293   *ABS*:00000005 CVRR
C:\Program Files\Microchip\MPLAB ASM30 Suite\bin\..\support\PIC24F\inc/P24FV16KA301.INC:2294   *ABS*:00000006 CVROE
C:\Program Files\Microchip\MPLAB ASM30 Suite\bin\..\support\PIC24F\inc/P24FV16KA301.INC:2295   *ABS*:00000007 CVREN
C:\Program Files\Microchip\MPLAB ASM30 Suite\bin\..\support\PIC24F\inc/P24FV16KA301.INC:2297   *ABS*:00000000 CVR0
C:\Program Files\Microchip\MPLAB ASM30 Suite\bin\..\support\PIC24F\inc/P24FV16KA301.INC:2298   *ABS*:00000001 CVR1
C:\Program Files\Microchip\MPLAB ASM30 Suite\bin\..\support\PIC24F\inc/P24FV16KA301.INC:2299   *ABS*:00000002 CVR2
C:\Program Files\Microchip\MPLAB ASM30 Suite\bin\..\support\PIC24F\inc/P24FV16KA301.INC:2300   *ABS*:00000003 CVR3
C:\Program Files\Microchip\MPLAB ASM30 Suite\bin\..\support\PIC24F\inc/P24FV16KA301.INC:2304   *ABS*:00000004 CREF
C:\Program Files\Microchip\MPLAB ASM30 Suite\bin\..\support\PIC24F\inc/P24FV16KA301.INC:2305   *ABS*:00000008 COUT
C:\Program Files\Microchip\MPLAB ASM30 Suite\bin\..\support\PIC24F\inc/P24FV16KA301.INC:2306   *ABS*:00000009 CEVT
C:\Program Files\Microchip\MPLAB ASM30 Suite\bin\..\support\PIC24F\inc/P24FV16KA301.INC:2307   *ABS*:0000000c CLPWR
C:\Program Files\Microchip\MPLAB ASM30 Suite\bin\..\support\PIC24F\inc/P24FV16KA301.INC:2308   *ABS*:0000000d CPOL
C:\Program Files\Microchip\MPLAB ASM30 Suite\bin\..\support\PIC24F\inc/P24FV16KA301.INC:2309   *ABS*:0000000e COE
C:\Program Files\Microchip\MPLAB ASM30 Suite\bin\..\support\PIC24F\inc/P24FV16KA301.INC:2310   *ABS*:0000000f CON
C:\Program Files\Microchip\MPLAB ASM30 Suite\bin\..\support\PIC24F\inc/P24FV16KA301.INC:2312   *ABS*:00000000 CCH0
C:\Program Files\Microchip\MPLAB ASM30 Suite\bin\..\support\PIC24F\inc/P24FV16KA301.INC:2313   *ABS*:00000001 CCH1
C:\Program Files\Microchip\MPLAB ASM30 Suite\bin\..\support\PIC24F\inc/P24FV16KA301.INC:2314   *ABS*:00000006 EVPOL0
C:\Program Files\Microchip\MPLAB ASM30 Suite\bin\..\support\PIC24F\inc/P24FV16KA301.INC:2315   *ABS*:00000007 EVPOL1
C:\Program Files\Microchip\MPLAB ASM30 Suite\bin\..\support\PIC24F\inc/P24FV16KA301.INC:2349   *ABS*:00000003 LENDIAN
C:\Program Files\Microchip\MPLAB ASM30 Suite\bin\..\support\PIC24F\inc/P24FV16KA301.INC:2350   *ABS*:00000004 CRCGO
C:\Program Files\Microchip\MPLAB ASM30 Suite\bin\..\support\PIC24F\inc/P24FV16KA301.INC:2351   *ABS*:00000005 CRCISEL
C:\Program Files\Microchip\MPLAB ASM30 Suite\bin\..\support\PIC24F\inc/P24FV16KA301.INC:2352   *ABS*:00000006 CRCMPT
C:\Program Files\Microchip\MPLAB ASM30 Suite\bin\..\support\PIC24F\inc/P24FV16KA301.INC:2353   *ABS*:00000007 CRCFUL
C:\Program Files\Microchip\MPLAB ASM30 Suite\bin\..\support\PIC24F\inc/P24FV16KA301.INC:2354   *ABS*:0000000d CSIDL
C:\Program Files\Microchip\MPLAB ASM30 Suite\bin\..\support\PIC24F\inc/P24FV16KA301.INC:2355   *ABS*:0000000f CRCEN
C:\Program Files\Microchip\MPLAB ASM30 Suite\bin\..\support\PIC24F\inc/P24FV16KA301.INC:2357   *ABS*:00000000 PLEN0
C:\Program Files\Microchip\MPLAB ASM30 Suite\bin\..\support\PIC24F\inc/P24FV16KA301.INC:2358   *ABS*:00000001 PLEN1
C:\Program Files\Microchip\MPLAB ASM30 Suite\bin\..\support\PIC24F\inc/P24FV16KA301.INC:2359   *ABS*:00000002 PLEN2
C:\Program Files\Microchip\MPLAB ASM30 Suite\bin\..\support\PIC24F\inc/P24FV16KA301.INC:2360   *ABS*:00000003 PLEN3
C:\Program Files\Microchip\MPLAB ASM30 Suite\bin\..\support\PIC24F\inc/P24FV16KA301.INC:2361   *ABS*:00000008 VWORD0
C:\Program Files\Microchip\MPLAB ASM30 Suite\bin\..\support\PIC24F\inc/P24FV16KA301.INC:2362   *ABS*:00000009 VWORD1
C:\Program Files\Microchip\MPLAB ASM30 Suite\bin\..\support\PIC24F\inc/P24FV16KA301.INC:2363   *ABS*:0000000a VWORD2
C:\Program Files\Microchip\MPLAB ASM30 Suite\bin\..\support\PIC24F\inc/P24FV16KA301.INC:2364   *ABS*:0000000b VWORD3
C:\Program Files\Microchip\MPLAB ASM30 Suite\bin\..\support\PIC24F\inc/P24FV16KA301.INC:2365   *ABS*:0000000c VWORD4
C:\Program Files\Microchip\MPLAB ASM30 Suite\bin\..\support\PIC24F\inc/P24FV16KA301.INC:2373   *ABS*:00000004 PLEN4
C:\Program Files\Microchip\MPLAB ASM30 Suite\bin\..\support\PIC24F\inc/P24FV16KA301.INC:2374   *ABS*:00000008 DWIDTH0
C:\Program Files\Microchip\MPLAB ASM30 Suite\bin\..\support\PIC24F\inc/P24FV16KA301.INC:2375   *ABS*:00000009 DWIDTH1
C:\Program Files\Microchip\MPLAB ASM30 Suite\bin\..\support\PIC24F\inc/P24FV16KA301.INC:2376   *ABS*:0000000a DWIDTH2
C:\Program Files\Microchip\MPLAB ASM30 Suite\bin\..\support\PIC24F\inc/P24FV16KA301.INC:2377   *ABS*:0000000b DWIDTH3
C:\Program Files\Microchip\MPLAB ASM30 Suite\bin\..\support\PIC24F\inc/P24FV16KA301.INC:2378   *ABS*:0000000c DWIDTH4
MPLAB ASM30 Listing:  aurora9x18mk2.s 			page 58
Aurora main engine

C:\Program Files\Microchip\MPLAB ASM30 Suite\bin\..\support\PIC24F\inc/P24FV16KA301.INC:2382   *ABS*:00000001 X1
C:\Program Files\Microchip\MPLAB ASM30 Suite\bin\..\support\PIC24F\inc/P24FV16KA301.INC:2383   *ABS*:00000002 X2
C:\Program Files\Microchip\MPLAB ASM30 Suite\bin\..\support\PIC24F\inc/P24FV16KA301.INC:2384   *ABS*:00000003 X3
C:\Program Files\Microchip\MPLAB ASM30 Suite\bin\..\support\PIC24F\inc/P24FV16KA301.INC:2385   *ABS*:00000004 X4
C:\Program Files\Microchip\MPLAB ASM30 Suite\bin\..\support\PIC24F\inc/P24FV16KA301.INC:2386   *ABS*:00000005 X5
C:\Program Files\Microchip\MPLAB ASM30 Suite\bin\..\support\PIC24F\inc/P24FV16KA301.INC:2387   *ABS*:00000006 X6
C:\Program Files\Microchip\MPLAB ASM30 Suite\bin\..\support\PIC24F\inc/P24FV16KA301.INC:2388   *ABS*:00000007 X7
C:\Program Files\Microchip\MPLAB ASM30 Suite\bin\..\support\PIC24F\inc/P24FV16KA301.INC:2389   *ABS*:00000008 X8
C:\Program Files\Microchip\MPLAB ASM30 Suite\bin\..\support\PIC24F\inc/P24FV16KA301.INC:2390   *ABS*:00000009 X9
C:\Program Files\Microchip\MPLAB ASM30 Suite\bin\..\support\PIC24F\inc/P24FV16KA301.INC:2391   *ABS*:0000000a X10
C:\Program Files\Microchip\MPLAB ASM30 Suite\bin\..\support\PIC24F\inc/P24FV16KA301.INC:2392   *ABS*:0000000b X11
C:\Program Files\Microchip\MPLAB ASM30 Suite\bin\..\support\PIC24F\inc/P24FV16KA301.INC:2393   *ABS*:0000000c X12
C:\Program Files\Microchip\MPLAB ASM30 Suite\bin\..\support\PIC24F\inc/P24FV16KA301.INC:2394   *ABS*:0000000d X13
C:\Program Files\Microchip\MPLAB ASM30 Suite\bin\..\support\PIC24F\inc/P24FV16KA301.INC:2395   *ABS*:0000000e X14
C:\Program Files\Microchip\MPLAB ASM30 Suite\bin\..\support\PIC24F\inc/P24FV16KA301.INC:2396   *ABS*:0000000f X15
C:\Program Files\Microchip\MPLAB ASM30 Suite\bin\..\support\PIC24F\inc/P24FV16KA301.INC:2418   *ABS*:00000000 X16
C:\Program Files\Microchip\MPLAB ASM30 Suite\bin\..\support\PIC24F\inc/P24FV16KA301.INC:2419   *ABS*:00000001 X17
C:\Program Files\Microchip\MPLAB ASM30 Suite\bin\..\support\PIC24F\inc/P24FV16KA301.INC:2420   *ABS*:00000002 X18
C:\Program Files\Microchip\MPLAB ASM30 Suite\bin\..\support\PIC24F\inc/P24FV16KA301.INC:2421   *ABS*:00000003 X19
C:\Program Files\Microchip\MPLAB ASM30 Suite\bin\..\support\PIC24F\inc/P24FV16KA301.INC:2422   *ABS*:00000004 X20
C:\Program Files\Microchip\MPLAB ASM30 Suite\bin\..\support\PIC24F\inc/P24FV16KA301.INC:2423   *ABS*:00000005 X21
C:\Program Files\Microchip\MPLAB ASM30 Suite\bin\..\support\PIC24F\inc/P24FV16KA301.INC:2424   *ABS*:00000006 X22
C:\Program Files\Microchip\MPLAB ASM30 Suite\bin\..\support\PIC24F\inc/P24FV16KA301.INC:2425   *ABS*:00000007 X23
C:\Program Files\Microchip\MPLAB ASM30 Suite\bin\..\support\PIC24F\inc/P24FV16KA301.INC:2426   *ABS*:00000008 X24
C:\Program Files\Microchip\MPLAB ASM30 Suite\bin\..\support\PIC24F\inc/P24FV16KA301.INC:2427   *ABS*:00000009 X25
C:\Program Files\Microchip\MPLAB ASM30 Suite\bin\..\support\PIC24F\inc/P24FV16KA301.INC:2428   *ABS*:0000000a X26
C:\Program Files\Microchip\MPLAB ASM30 Suite\bin\..\support\PIC24F\inc/P24FV16KA301.INC:2429   *ABS*:0000000b X27
C:\Program Files\Microchip\MPLAB ASM30 Suite\bin\..\support\PIC24F\inc/P24FV16KA301.INC:2430   *ABS*:0000000c X28
C:\Program Files\Microchip\MPLAB ASM30 Suite\bin\..\support\PIC24F\inc/P24FV16KA301.INC:2431   *ABS*:0000000d X29
C:\Program Files\Microchip\MPLAB ASM30 Suite\bin\..\support\PIC24F\inc/P24FV16KA301.INC:2432   *ABS*:0000000e X30
C:\Program Files\Microchip\MPLAB ASM30 Suite\bin\..\support\PIC24F\inc/P24FV16KA301.INC:2433   *ABS*:0000000f X31
C:\Program Files\Microchip\MPLAB ASM30 Suite\bin\..\support\PIC24F\inc/P24FV16KA301.INC:2437   *ABS*:00000000 POR
C:\Program Files\Microchip\MPLAB ASM30 Suite\bin\..\support\PIC24F\inc/P24FV16KA301.INC:2438   *ABS*:00000001 BOR
C:\Program Files\Microchip\MPLAB ASM30 Suite\bin\..\support\PIC24F\inc/P24FV16KA301.INC:2439   *ABS*:00000002 IDLE
C:\Program Files\Microchip\MPLAB ASM30 Suite\bin\..\support\PIC24F\inc/P24FV16KA301.INC:2440   *ABS*:00000003 SLEEP
C:\Program Files\Microchip\MPLAB ASM30 Suite\bin\..\support\PIC24F\inc/P24FV16KA301.INC:2441   *ABS*:00000004 WDTO
C:\Program Files\Microchip\MPLAB ASM30 Suite\bin\..\support\PIC24F\inc/P24FV16KA301.INC:2442   *ABS*:00000005 SWDTEN
C:\Program Files\Microchip\MPLAB ASM30 Suite\bin\..\support\PIC24F\inc/P24FV16KA301.INC:2443   *ABS*:00000006 SWR
C:\Program Files\Microchip\MPLAB ASM30 Suite\bin\..\support\PIC24F\inc/P24FV16KA301.INC:2444   *ABS*:00000007 EXTR
C:\Program Files\Microchip\MPLAB ASM30 Suite\bin\..\support\PIC24F\inc/P24FV16KA301.INC:2445   *ABS*:00000008 PMSLP
C:\Program Files\Microchip\MPLAB ASM30 Suite\bin\..\support\PIC24F\inc/P24FV16KA301.INC:2446   *ABS*:00000009 CM_RCON
C:\Program Files\Microchip\MPLAB ASM30 Suite\bin\..\support\PIC24F\inc/P24FV16KA301.INC:2447   *ABS*:0000000a DPSLP
C:\Program Files\Microchip\MPLAB ASM30 Suite\bin\..\support\PIC24F\inc/P24FV16KA301.INC:2448   *ABS*:0000000c LVREN
C:\Program Files\Microchip\MPLAB ASM30 Suite\bin\..\support\PIC24F\inc/P24FV16KA301.INC:2449   *ABS*:0000000d SBOREN
C:\Program Files\Microchip\MPLAB ASM30 Suite\bin\..\support\PIC24F\inc/P24FV16KA301.INC:2450   *ABS*:0000000e IOPUWR
C:\Program Files\Microchip\MPLAB ASM30 Suite\bin\..\support\PIC24F\inc/P24FV16KA301.INC:2451   *ABS*:0000000f TRAPR
C:\Program Files\Microchip\MPLAB ASM30 Suite\bin\..\support\PIC24F\inc/P24FV16KA301.INC:2453   *ABS*:00000008 VREGS
C:\Program Files\Microchip\MPLAB ASM30 Suite\bin\..\support\PIC24F\inc/P24FV16KA301.INC:2454   *ABS*:0000000c RETEN
C:\Program Files\Microchip\MPLAB ASM30 Suite\bin\..\support\PIC24F\inc/P24FV16KA301.INC:2458   *ABS*:00000000 OSWEN
C:\Program Files\Microchip\MPLAB ASM30 Suite\bin\..\support\PIC24F\inc/P24FV16KA301.INC:2459   *ABS*:00000001 SOSCEN
C:\Program Files\Microchip\MPLAB ASM30 Suite\bin\..\support\PIC24F\inc/P24FV16KA301.INC:2460   *ABS*:00000002 SOSCDRV
C:\Program Files\Microchip\MPLAB ASM30 Suite\bin\..\support\PIC24F\inc/P24FV16KA301.INC:2461   *ABS*:00000003 CF
C:\Program Files\Microchip\MPLAB ASM30 Suite\bin\..\support\PIC24F\inc/P24FV16KA301.INC:2462   *ABS*:00000005 LOCK
C:\Program Files\Microchip\MPLAB ASM30 Suite\bin\..\support\PIC24F\inc/P24FV16KA301.INC:2463   *ABS*:00000007 CLKLOCK
C:\Program Files\Microchip\MPLAB ASM30 Suite\bin\..\support\PIC24F\inc/P24FV16KA301.INC:2465   *ABS*:00000008 NOSC0
C:\Program Files\Microchip\MPLAB ASM30 Suite\bin\..\support\PIC24F\inc/P24FV16KA301.INC:2466   *ABS*:00000009 NOSC1
C:\Program Files\Microchip\MPLAB ASM30 Suite\bin\..\support\PIC24F\inc/P24FV16KA301.INC:2467   *ABS*:0000000a NOSC2
MPLAB ASM30 Listing:  aurora9x18mk2.s 			page 59
Aurora main engine

C:\Program Files\Microchip\MPLAB ASM30 Suite\bin\..\support\PIC24F\inc/P24FV16KA301.INC:2468   *ABS*:0000000c COSC0
C:\Program Files\Microchip\MPLAB ASM30 Suite\bin\..\support\PIC24F\inc/P24FV16KA301.INC:2469   *ABS*:0000000d COSC1
C:\Program Files\Microchip\MPLAB ASM30 Suite\bin\..\support\PIC24F\inc/P24FV16KA301.INC:2470   *ABS*:0000000e COSC2
C:\Program Files\Microchip\MPLAB ASM30 Suite\bin\..\support\PIC24F\inc/P24FV16KA301.INC:2474   *ABS*:0000000b DOZEN
C:\Program Files\Microchip\MPLAB ASM30 Suite\bin\..\support\PIC24F\inc/P24FV16KA301.INC:2475   *ABS*:0000000f ROI
C:\Program Files\Microchip\MPLAB ASM30 Suite\bin\..\support\PIC24F\inc/P24FV16KA301.INC:2477   *ABS*:00000008 RCDIV0
C:\Program Files\Microchip\MPLAB ASM30 Suite\bin\..\support\PIC24F\inc/P24FV16KA301.INC:2478   *ABS*:00000009 RCDIV1
C:\Program Files\Microchip\MPLAB ASM30 Suite\bin\..\support\PIC24F\inc/P24FV16KA301.INC:2479   *ABS*:0000000a RCDIV2
C:\Program Files\Microchip\MPLAB ASM30 Suite\bin\..\support\PIC24F\inc/P24FV16KA301.INC:2480   *ABS*:0000000c DOZE0
C:\Program Files\Microchip\MPLAB ASM30 Suite\bin\..\support\PIC24F\inc/P24FV16KA301.INC:2481   *ABS*:0000000d DOZE1
C:\Program Files\Microchip\MPLAB ASM30 Suite\bin\..\support\PIC24F\inc/P24FV16KA301.INC:2482   *ABS*:0000000e DOZE2
C:\Program Files\Microchip\MPLAB ASM30 Suite\bin\..\support\PIC24F\inc/P24FV16KA301.INC:2486   *ABS*:00000000 TUN0
C:\Program Files\Microchip\MPLAB ASM30 Suite\bin\..\support\PIC24F\inc/P24FV16KA301.INC:2487   *ABS*:00000001 TUN1
C:\Program Files\Microchip\MPLAB ASM30 Suite\bin\..\support\PIC24F\inc/P24FV16KA301.INC:2488   *ABS*:00000002 TUN2
C:\Program Files\Microchip\MPLAB ASM30 Suite\bin\..\support\PIC24F\inc/P24FV16KA301.INC:2489   *ABS*:00000003 TUN3
C:\Program Files\Microchip\MPLAB ASM30 Suite\bin\..\support\PIC24F\inc/P24FV16KA301.INC:2490   *ABS*:00000004 TUN4
C:\Program Files\Microchip\MPLAB ASM30 Suite\bin\..\support\PIC24F\inc/P24FV16KA301.INC:2491   *ABS*:00000005 TUN5
C:\Program Files\Microchip\MPLAB ASM30 Suite\bin\..\support\PIC24F\inc/P24FV16KA301.INC:2495   *ABS*:0000000c ROSEL
C:\Program Files\Microchip\MPLAB ASM30 Suite\bin\..\support\PIC24F\inc/P24FV16KA301.INC:2496   *ABS*:0000000d ROSSLP
C:\Program Files\Microchip\MPLAB ASM30 Suite\bin\..\support\PIC24F\inc/P24FV16KA301.INC:2497   *ABS*:0000000f ROEN
C:\Program Files\Microchip\MPLAB ASM30 Suite\bin\..\support\PIC24F\inc/P24FV16KA301.INC:2499   *ABS*:00000008 RODIV0
C:\Program Files\Microchip\MPLAB ASM30 Suite\bin\..\support\PIC24F\inc/P24FV16KA301.INC:2500   *ABS*:00000009 RODIV1
C:\Program Files\Microchip\MPLAB ASM30 Suite\bin\..\support\PIC24F\inc/P24FV16KA301.INC:2501   *ABS*:0000000a RODIV2
C:\Program Files\Microchip\MPLAB ASM30 Suite\bin\..\support\PIC24F\inc/P24FV16KA301.INC:2502   *ABS*:0000000b RODIV3
C:\Program Files\Microchip\MPLAB ASM30 Suite\bin\..\support\PIC24F\inc/P24FV16KA301.INC:2506   *ABS*:00000005 IRVST
C:\Program Files\Microchip\MPLAB ASM30 Suite\bin\..\support\PIC24F\inc/P24FV16KA301.INC:2507   *ABS*:00000006 BGVST
C:\Program Files\Microchip\MPLAB ASM30 Suite\bin\..\support\PIC24F\inc/P24FV16KA301.INC:2508   *ABS*:00000007 VDIR
C:\Program Files\Microchip\MPLAB ASM30 Suite\bin\..\support\PIC24F\inc/P24FV16KA301.INC:2509   *ABS*:0000000d HLSIDL
C:\Program Files\Microchip\MPLAB ASM30 Suite\bin\..\support\PIC24F\inc/P24FV16KA301.INC:2510   *ABS*:0000000f HLVDEN
C:\Program Files\Microchip\MPLAB ASM30 Suite\bin\..\support\PIC24F\inc/P24FV16KA301.INC:2512   *ABS*:00000000 HLVDL0
C:\Program Files\Microchip\MPLAB ASM30 Suite\bin\..\support\PIC24F\inc/P24FV16KA301.INC:2513   *ABS*:00000001 HLVDL1
C:\Program Files\Microchip\MPLAB ASM30 Suite\bin\..\support\PIC24F\inc/P24FV16KA301.INC:2514   *ABS*:00000002 HLVDL2
C:\Program Files\Microchip\MPLAB ASM30 Suite\bin\..\support\PIC24F\inc/P24FV16KA301.INC:2515   *ABS*:00000003 HLVDL3
C:\Program Files\Microchip\MPLAB ASM30 Suite\bin\..\support\PIC24F\inc/P24FV16KA301.INC:2519   *ABS*:00000000 RELEASE
C:\Program Files\Microchip\MPLAB ASM30 Suite\bin\..\support\PIC24F\inc/P24FV16KA301.INC:2520   *ABS*:00000001 DSBOR
C:\Program Files\Microchip\MPLAB ASM30 Suite\bin\..\support\PIC24F\inc/P24FV16KA301.INC:2521   *ABS*:00000002 ULPWUDIS
C:\Program Files\Microchip\MPLAB ASM30 Suite\bin\..\support\PIC24F\inc/P24FV16KA301.INC:2522   *ABS*:00000008 RTCCWDIS
C:\Program Files\Microchip\MPLAB ASM30 Suite\bin\..\support\PIC24F\inc/P24FV16KA301.INC:2523   *ABS*:0000000f DSEN
C:\Program Files\Microchip\MPLAB ASM30 Suite\bin\..\support\PIC24F\inc/P24FV16KA301.INC:2527   *ABS*:00000000 DSPOR
C:\Program Files\Microchip\MPLAB ASM30 Suite\bin\..\support\PIC24F\inc/P24FV16KA301.INC:2528   *ABS*:00000002 DSMCLR
C:\Program Files\Microchip\MPLAB ASM30 Suite\bin\..\support\PIC24F\inc/P24FV16KA301.INC:2529   *ABS*:00000003 DSRTCC
C:\Program Files\Microchip\MPLAB ASM30 Suite\bin\..\support\PIC24F\inc/P24FV16KA301.INC:2530   *ABS*:00000004 DSWDT
C:\Program Files\Microchip\MPLAB ASM30 Suite\bin\..\support\PIC24F\inc/P24FV16KA301.INC:2531   *ABS*:00000007 DSFLT
C:\Program Files\Microchip\MPLAB ASM30 Suite\bin\..\support\PIC24F\inc/P24FV16KA301.INC:2532   *ABS*:00000008 DSINT0
C:\Program Files\Microchip\MPLAB ASM30 Suite\bin\..\support\PIC24F\inc/P24FV16KA301.INC:2545   *ABS*:00000006 ERASE
C:\Program Files\Microchip\MPLAB ASM30 Suite\bin\..\support\PIC24F\inc/P24FV16KA301.INC:2546   *ABS*:0000000c PGMONLY
C:\Program Files\Microchip\MPLAB ASM30 Suite\bin\..\support\PIC24F\inc/P24FV16KA301.INC:2547   *ABS*:0000000d WRERR
C:\Program Files\Microchip\MPLAB ASM30 Suite\bin\..\support\PIC24F\inc/P24FV16KA301.INC:2548   *ABS*:0000000e WREN
C:\Program Files\Microchip\MPLAB ASM30 Suite\bin\..\support\PIC24F\inc/P24FV16KA301.INC:2549   *ABS*:0000000f WR
C:\Program Files\Microchip\MPLAB ASM30 Suite\bin\..\support\PIC24F\inc/P24FV16KA301.INC:2551   *ABS*:00000000 NVMOP0
C:\Program Files\Microchip\MPLAB ASM30 Suite\bin\..\support\PIC24F\inc/P24FV16KA301.INC:2552   *ABS*:00000001 NVMOP1
C:\Program Files\Microchip\MPLAB ASM30 Suite\bin\..\support\PIC24F\inc/P24FV16KA301.INC:2553   *ABS*:00000002 NVMOP2
C:\Program Files\Microchip\MPLAB ASM30 Suite\bin\..\support\PIC24F\inc/P24FV16KA301.INC:2554   *ABS*:00000003 NVMOP3
C:\Program Files\Microchip\MPLAB ASM30 Suite\bin\..\support\PIC24F\inc/P24FV16KA301.INC:2555   *ABS*:00000004 NVMOP4
C:\Program Files\Microchip\MPLAB ASM30 Suite\bin\..\support\PIC24F\inc/P24FV16KA301.INC:2556   *ABS*:00000005 NVMOP5
C:\Program Files\Microchip\MPLAB ASM30 Suite\bin\..\support\PIC24F\inc/P24FV16KA301.INC:2560   *ABS*:00000000 NVMKEY0
C:\Program Files\Microchip\MPLAB ASM30 Suite\bin\..\support\PIC24F\inc/P24FV16KA301.INC:2561   *ABS*:00000001 NVMKEY1
MPLAB ASM30 Listing:  aurora9x18mk2.s 			page 60
Aurora main engine

C:\Program Files\Microchip\MPLAB ASM30 Suite\bin\..\support\PIC24F\inc/P24FV16KA301.INC:2562   *ABS*:00000002 NVMKEY2
C:\Program Files\Microchip\MPLAB ASM30 Suite\bin\..\support\PIC24F\inc/P24FV16KA301.INC:2563   *ABS*:00000003 NVMKEY3
C:\Program Files\Microchip\MPLAB ASM30 Suite\bin\..\support\PIC24F\inc/P24FV16KA301.INC:2564   *ABS*:00000004 NVMKEY4
C:\Program Files\Microchip\MPLAB ASM30 Suite\bin\..\support\PIC24F\inc/P24FV16KA301.INC:2565   *ABS*:00000005 NVMKEY5
C:\Program Files\Microchip\MPLAB ASM30 Suite\bin\..\support\PIC24F\inc/P24FV16KA301.INC:2566   *ABS*:00000006 NVMKEY6
C:\Program Files\Microchip\MPLAB ASM30 Suite\bin\..\support\PIC24F\inc/P24FV16KA301.INC:2567   *ABS*:00000007 NVMKEY7
C:\Program Files\Microchip\MPLAB ASM30 Suite\bin\..\support\PIC24F\inc/P24FV16KA301.INC:2571   *ABS*:00000008 ULPSINK
C:\Program Files\Microchip\MPLAB ASM30 Suite\bin\..\support\PIC24F\inc/P24FV16KA301.INC:2572   *ABS*:0000000d ULPSIDL
C:\Program Files\Microchip\MPLAB ASM30 Suite\bin\..\support\PIC24F\inc/P24FV16KA301.INC:2573   *ABS*:0000000f ULPEN
C:\Program Files\Microchip\MPLAB ASM30 Suite\bin\..\support\PIC24F\inc/P24FV16KA301.INC:2577   *ABS*:00000000 ADC1MD
C:\Program Files\Microchip\MPLAB ASM30 Suite\bin\..\support\PIC24F\inc/P24FV16KA301.INC:2578   *ABS*:00000003 SPI1MD
C:\Program Files\Microchip\MPLAB ASM30 Suite\bin\..\support\PIC24F\inc/P24FV16KA301.INC:2579   *ABS*:00000004 SPI2MD
C:\Program Files\Microchip\MPLAB ASM30 Suite\bin\..\support\PIC24F\inc/P24FV16KA301.INC:2580   *ABS*:00000005 U1MD
C:\Program Files\Microchip\MPLAB ASM30 Suite\bin\..\support\PIC24F\inc/P24FV16KA301.INC:2581   *ABS*:00000006 U2MD
C:\Program Files\Microchip\MPLAB ASM30 Suite\bin\..\support\PIC24F\inc/P24FV16KA301.INC:2582   *ABS*:00000007 I2C1MD
C:\Program Files\Microchip\MPLAB ASM30 Suite\bin\..\support\PIC24F\inc/P24FV16KA301.INC:2583   *ABS*:0000000b T1MD
C:\Program Files\Microchip\MPLAB ASM30 Suite\bin\..\support\PIC24F\inc/P24FV16KA301.INC:2584   *ABS*:0000000c T2MD
C:\Program Files\Microchip\MPLAB ASM30 Suite\bin\..\support\PIC24F\inc/P24FV16KA301.INC:2585   *ABS*:0000000d T3MD
C:\Program Files\Microchip\MPLAB ASM30 Suite\bin\..\support\PIC24F\inc/P24FV16KA301.INC:2586   *ABS*:0000000e T4MD
C:\Program Files\Microchip\MPLAB ASM30 Suite\bin\..\support\PIC24F\inc/P24FV16KA301.INC:2587   *ABS*:0000000f T5MD
C:\Program Files\Microchip\MPLAB ASM30 Suite\bin\..\support\PIC24F\inc/P24FV16KA301.INC:2591   *ABS*:00000000 OC1MD
C:\Program Files\Microchip\MPLAB ASM30 Suite\bin\..\support\PIC24F\inc/P24FV16KA301.INC:2592   *ABS*:00000001 OC2MD
C:\Program Files\Microchip\MPLAB ASM30 Suite\bin\..\support\PIC24F\inc/P24FV16KA301.INC:2593   *ABS*:00000002 OC3MD
C:\Program Files\Microchip\MPLAB ASM30 Suite\bin\..\support\PIC24F\inc/P24FV16KA301.INC:2594   *ABS*:00000008 IC1MD
C:\Program Files\Microchip\MPLAB ASM30 Suite\bin\..\support\PIC24F\inc/P24FV16KA301.INC:2595   *ABS*:00000009 IC2MD
C:\Program Files\Microchip\MPLAB ASM30 Suite\bin\..\support\PIC24F\inc/P24FV16KA301.INC:2596   *ABS*:0000000a IC3MD
C:\Program Files\Microchip\MPLAB ASM30 Suite\bin\..\support\PIC24F\inc/P24FV16KA301.INC:2600   *ABS*:00000001 I2C2MD
C:\Program Files\Microchip\MPLAB ASM30 Suite\bin\..\support\PIC24F\inc/P24FV16KA301.INC:2601   *ABS*:00000007 CRCPMD
C:\Program Files\Microchip\MPLAB ASM30 Suite\bin\..\support\PIC24F\inc/P24FV16KA301.INC:2602   *ABS*:00000009 RTCCMD
C:\Program Files\Microchip\MPLAB ASM30 Suite\bin\..\support\PIC24F\inc/P24FV16KA301.INC:2603   *ABS*:0000000a CMPMD
C:\Program Files\Microchip\MPLAB ASM30 Suite\bin\..\support\PIC24F\inc/P24FV16KA301.INC:2607   *ABS*:00000001 HLVDMD
C:\Program Files\Microchip\MPLAB ASM30 Suite\bin\..\support\PIC24F\inc/P24FV16KA301.INC:2608   *ABS*:00000002 CTMUMD
C:\Program Files\Microchip\MPLAB ASM30 Suite\bin\..\support\PIC24F\inc/P24FV16KA301.INC:2609   *ABS*:00000003 REFOMD
C:\Program Files\Microchip\MPLAB ASM30 Suite\bin\..\support\PIC24F\inc/P24FV16KA301.INC:2610   *ABS*:00000004 EEMD
C:\Program Files\Microchip\MPLAB ASM30 Suite\bin\..\support\PIC24F\inc/P24FV16KA301.INC:2611   *ABS*:00000007 ULPWUMD
C:\Program Files\Microchip\MPLAB ASM30 Suite\bin\..\support\PIC24F\inc/P24FV16KA301.INC:2618   *ABS*:00000000 SLEEP_MODE
C:\Program Files\Microchip\MPLAB ASM30 Suite\bin\..\support\PIC24F\inc/P24FV16KA301.INC:2619   *ABS*:00000001 IDLE_MODE
C:\Program Files\Microchip\MPLAB ASM30 Suite\bin\..\support\PIC24F\inc/P24FV16KA301.INC:2690   *ABS*:0000fffe BWRP_ON
C:\Program Files\Microchip\MPLAB ASM30 Suite\bin\..\support\PIC24F\inc/P24FV16KA301.INC:2691   *ABS*:0000ffff BWRP_OFF
C:\Program Files\Microchip\MPLAB ASM30 Suite\bin\..\support\PIC24F\inc/P24FV16KA301.INC:2693   *ABS*:0000fff3 BSS_HI2K
C:\Program Files\Microchip\MPLAB ASM30 Suite\bin\..\support\PIC24F\inc/P24FV16KA301.INC:2694   *ABS*:0000fff5 BSS_HI1K
C:\Program Files\Microchip\MPLAB ASM30 Suite\bin\..\support\PIC24F\inc/P24FV16KA301.INC:2695   *ABS*:0000fffb BSS_STD2K
C:\Program Files\Microchip\MPLAB ASM30 Suite\bin\..\support\PIC24F\inc/P24FV16KA301.INC:2696   *ABS*:0000fffd BSS_STD1K
C:\Program Files\Microchip\MPLAB ASM30 Suite\bin\..\support\PIC24F\inc/P24FV16KA301.INC:2697   *ABS*:0000ffff BSS_OFF
C:\Program Files\Microchip\MPLAB ASM30 Suite\bin\..\support\PIC24F\inc/P24FV16KA301.INC:2712   *ABS*:0000fffe GWRP_ON
C:\Program Files\Microchip\MPLAB ASM30 Suite\bin\..\support\PIC24F\inc/P24FV16KA301.INC:2713   *ABS*:0000ffff GWRP_OFF
C:\Program Files\Microchip\MPLAB ASM30 Suite\bin\..\support\PIC24F\inc/P24FV16KA301.INC:2715   *ABS*:0000fffd GSS0_ON
C:\Program Files\Microchip\MPLAB ASM30 Suite\bin\..\support\PIC24F\inc/P24FV16KA301.INC:2716   *ABS*:0000ffff GSS0_OFF
C:\Program Files\Microchip\MPLAB ASM30 Suite\bin\..\support\PIC24F\inc/P24FV16KA301.INC:2745   *ABS*:0000fff8 FNOSC_FRC
C:\Program Files\Microchip\MPLAB ASM30 Suite\bin\..\support\PIC24F\inc/P24FV16KA301.INC:2746   *ABS*:0000fff9 FNOSC_FRCPLL
C:\Program Files\Microchip\MPLAB ASM30 Suite\bin\..\support\PIC24F\inc/P24FV16KA301.INC:2747   *ABS*:0000fffa FNOSC_PRI
C:\Program Files\Microchip\MPLAB ASM30 Suite\bin\..\support\PIC24F\inc/P24FV16KA301.INC:2748   *ABS*:0000fffb FNOSC_PRIPLL
C:\Program Files\Microchip\MPLAB ASM30 Suite\bin\..\support\PIC24F\inc/P24FV16KA301.INC:2749   *ABS*:0000fffc FNOSC_SOSC
C:\Program Files\Microchip\MPLAB ASM30 Suite\bin\..\support\PIC24F\inc/P24FV16KA301.INC:2750   *ABS*:0000fffd FNOSC_LPRC
C:\Program Files\Microchip\MPLAB ASM30 Suite\bin\..\support\PIC24F\inc/P24FV16KA301.INC:2751   *ABS*:0000fffe FNOSC_LPFRC
C:\Program Files\Microchip\MPLAB ASM30 Suite\bin\..\support\PIC24F\inc/P24FV16KA301.INC:2752   *ABS*:0000ffff FNOSC_FRCDIV
C:\Program Files\Microchip\MPLAB ASM30 Suite\bin\..\support\PIC24F\inc/P24FV16KA301.INC:2754   *ABS*:0000ffdf SOSCSRC_DIG
MPLAB ASM30 Listing:  aurora9x18mk2.s 			page 61
Aurora main engine

C:\Program Files\Microchip\MPLAB ASM30 Suite\bin\..\support\PIC24F\inc/P24FV16KA301.INC:2755   *ABS*:0000ffff SOSCSRC_ANA
C:\Program Files\Microchip\MPLAB ASM30 Suite\bin\..\support\PIC24F\inc/P24FV16KA301.INC:2757   *ABS*:0000ffbf LPRCSEL_LP
C:\Program Files\Microchip\MPLAB ASM30 Suite\bin\..\support\PIC24F\inc/P24FV16KA301.INC:2758   *ABS*:0000ffff LPRCSEL_HP
C:\Program Files\Microchip\MPLAB ASM30 Suite\bin\..\support\PIC24F\inc/P24FV16KA301.INC:2760   *ABS*:0000ff7f IESO_OFF
C:\Program Files\Microchip\MPLAB ASM30 Suite\bin\..\support\PIC24F\inc/P24FV16KA301.INC:2761   *ABS*:0000ffff IESO_ON
C:\Program Files\Microchip\MPLAB ASM30 Suite\bin\..\support\PIC24F\inc/P24FV16KA301.INC:2792   *ABS*:0000fffc POSCMOD_EC
C:\Program Files\Microchip\MPLAB ASM30 Suite\bin\..\support\PIC24F\inc/P24FV16KA301.INC:2793   *ABS*:0000fffd POSCMOD_XT
C:\Program Files\Microchip\MPLAB ASM30 Suite\bin\..\support\PIC24F\inc/P24FV16KA301.INC:2794   *ABS*:0000fffe POSCMOD_HS
C:\Program Files\Microchip\MPLAB ASM30 Suite\bin\..\support\PIC24F\inc/P24FV16KA301.INC:2795   *ABS*:0000ffff POSCMOD_NONE
C:\Program Files\Microchip\MPLAB ASM30 Suite\bin\..\support\PIC24F\inc/P24FV16KA301.INC:2797   *ABS*:0000fffb OSCIOFNC_OFF
C:\Program Files\Microchip\MPLAB ASM30 Suite\bin\..\support\PIC24F\inc/P24FV16KA301.INC:2798   *ABS*:0000ffff OSCIOFNC_ON
C:\Program Files\Microchip\MPLAB ASM30 Suite\bin\..\support\PIC24F\inc/P24FV16KA301.INC:2800   *ABS*:0000ffef POSCFREQ_LS
C:\Program Files\Microchip\MPLAB ASM30 Suite\bin\..\support\PIC24F\inc/P24FV16KA301.INC:2801   *ABS*:0000fff7 POSCFREQ_MS
C:\Program Files\Microchip\MPLAB ASM30 Suite\bin\..\support\PIC24F\inc/P24FV16KA301.INC:2802   *ABS*:0000ffff POSCFREQ_HS
C:\Program Files\Microchip\MPLAB ASM30 Suite\bin\..\support\PIC24F\inc/P24FV16KA301.INC:2804   *ABS*:0000ffdf SOSCSEL_SOSCLP
C:\Program Files\Microchip\MPLAB ASM30 Suite\bin\..\support\PIC24F\inc/P24FV16KA301.INC:2805   *ABS*:0000ffff SOSCSEL_SOSCHP
C:\Program Files\Microchip\MPLAB ASM30 Suite\bin\..\support\PIC24F\inc/P24FV16KA301.INC:2807   *ABS*:0000ff3f FCKSM_CSECME
C:\Program Files\Microchip\MPLAB ASM30 Suite\bin\..\support\PIC24F\inc/P24FV16KA301.INC:2808   *ABS*:0000ff7f FCKSM_CSECMD
C:\Program Files\Microchip\MPLAB ASM30 Suite\bin\..\support\PIC24F\inc/P24FV16KA301.INC:2809   *ABS*:0000ffbf FCKSM_CSDCMD
C:\Program Files\Microchip\MPLAB ASM30 Suite\bin\..\support\PIC24F\inc/P24FV16KA301.INC:2848   *ABS*:0000fff0 WDTPS_PS1
C:\Program Files\Microchip\MPLAB ASM30 Suite\bin\..\support\PIC24F\inc/P24FV16KA301.INC:2849   *ABS*:0000fff1 WDTPS_PS2
C:\Program Files\Microchip\MPLAB ASM30 Suite\bin\..\support\PIC24F\inc/P24FV16KA301.INC:2850   *ABS*:0000fff2 WDTPS_PS4
C:\Program Files\Microchip\MPLAB ASM30 Suite\bin\..\support\PIC24F\inc/P24FV16KA301.INC:2851   *ABS*:0000fff3 WDTPS_PS8
C:\Program Files\Microchip\MPLAB ASM30 Suite\bin\..\support\PIC24F\inc/P24FV16KA301.INC:2852   *ABS*:0000fff4 WDTPS_PS16
C:\Program Files\Microchip\MPLAB ASM30 Suite\bin\..\support\PIC24F\inc/P24FV16KA301.INC:2853   *ABS*:0000fff5 WDTPS_PS32
C:\Program Files\Microchip\MPLAB ASM30 Suite\bin\..\support\PIC24F\inc/P24FV16KA301.INC:2854   *ABS*:0000fff6 WDTPS_PS64
C:\Program Files\Microchip\MPLAB ASM30 Suite\bin\..\support\PIC24F\inc/P24FV16KA301.INC:2855   *ABS*:0000fff7 WDTPS_PS128
C:\Program Files\Microchip\MPLAB ASM30 Suite\bin\..\support\PIC24F\inc/P24FV16KA301.INC:2856   *ABS*:0000fff8 WDTPS_PS256
C:\Program Files\Microchip\MPLAB ASM30 Suite\bin\..\support\PIC24F\inc/P24FV16KA301.INC:2857   *ABS*:0000fff9 WDTPS_PS512
C:\Program Files\Microchip\MPLAB ASM30 Suite\bin\..\support\PIC24F\inc/P24FV16KA301.INC:2858   *ABS*:0000fffa WDTPS_PS1024
C:\Program Files\Microchip\MPLAB ASM30 Suite\bin\..\support\PIC24F\inc/P24FV16KA301.INC:2859   *ABS*:0000fffb WDTPS_PS2048
C:\Program Files\Microchip\MPLAB ASM30 Suite\bin\..\support\PIC24F\inc/P24FV16KA301.INC:2860   *ABS*:0000fffc WDTPS_PS4096
C:\Program Files\Microchip\MPLAB ASM30 Suite\bin\..\support\PIC24F\inc/P24FV16KA301.INC:2861   *ABS*:0000fffd WDTPS_PS8192
C:\Program Files\Microchip\MPLAB ASM30 Suite\bin\..\support\PIC24F\inc/P24FV16KA301.INC:2862   *ABS*:0000fffe WDTPS_PS16384
C:\Program Files\Microchip\MPLAB ASM30 Suite\bin\..\support\PIC24F\inc/P24FV16KA301.INC:2863   *ABS*:0000ffff WDTPS_PS32768
C:\Program Files\Microchip\MPLAB ASM30 Suite\bin\..\support\PIC24F\inc/P24FV16KA301.INC:2865   *ABS*:0000ffef FWPSA_PR32
C:\Program Files\Microchip\MPLAB ASM30 Suite\bin\..\support\PIC24F\inc/P24FV16KA301.INC:2866   *ABS*:0000ffff FWPSA_PR128
C:\Program Files\Microchip\MPLAB ASM30 Suite\bin\..\support\PIC24F\inc/P24FV16KA301.INC:2868   *ABS*:0000ff5f FWDTEN_OFF
C:\Program Files\Microchip\MPLAB ASM30 Suite\bin\..\support\PIC24F\inc/P24FV16KA301.INC:2869   *ABS*:0000ff7f FWDTEN_NOSLP
C:\Program Files\Microchip\MPLAB ASM30 Suite\bin\..\support\PIC24F\inc/P24FV16KA301.INC:2870   *ABS*:0000ffdf FWDTEN_SWON
C:\Program Files\Microchip\MPLAB ASM30 Suite\bin\..\support\PIC24F\inc/P24FV16KA301.INC:2871   *ABS*:0000ffff FWDTEN_ON
C:\Program Files\Microchip\MPLAB ASM30 Suite\bin\..\support\PIC24F\inc/P24FV16KA301.INC:2873   *ABS*:0000ffbf WINDIS_ON
C:\Program Files\Microchip\MPLAB ASM30 Suite\bin\..\support\PIC24F\inc/P24FV16KA301.INC:2874   *ABS*:0000ffff WINDIS_OFF
C:\Program Files\Microchip\MPLAB ASM30 Suite\bin\..\support\PIC24F\inc/P24FV16KA301.INC:2909   *ABS*:0000fffc BOREN_BOR0
C:\Program Files\Microchip\MPLAB ASM30 Suite\bin\..\support\PIC24F\inc/P24FV16KA301.INC:2910   *ABS*:0000fffd BOREN_BOR1
C:\Program Files\Microchip\MPLAB ASM30 Suite\bin\..\support\PIC24F\inc/P24FV16KA301.INC:2911   *ABS*:0000fffe BOREN_BOR2
C:\Program Files\Microchip\MPLAB ASM30 Suite\bin\..\support\PIC24F\inc/P24FV16KA301.INC:2912   *ABS*:0000ffff BOREN_BOR3
C:\Program Files\Microchip\MPLAB ASM30 Suite\bin\..\support\PIC24F\inc/P24FV16KA301.INC:2914   *ABS*:0000fffb LVRCFG_ON
C:\Program Files\Microchip\MPLAB ASM30 Suite\bin\..\support\PIC24F\inc/P24FV16KA301.INC:2915   *ABS*:0000ffff LVRCFG_OFF
C:\Program Files\Microchip\MPLAB ASM30 Suite\bin\..\support\PIC24F\inc/P24FV16KA301.INC:2917   *ABS*:0000fff7 PWRTEN_OFF
C:\Program Files\Microchip\MPLAB ASM30 Suite\bin\..\support\PIC24F\inc/P24FV16KA301.INC:2918   *ABS*:0000ffff PWRTEN_ON
C:\Program Files\Microchip\MPLAB ASM30 Suite\bin\..\support\PIC24F\inc/P24FV16KA301.INC:2920   *ABS*:0000ffef I2C1SEL_SEC
C:\Program Files\Microchip\MPLAB ASM30 Suite\bin\..\support\PIC24F\inc/P24FV16KA301.INC:2921   *ABS*:0000ffff I2C1SEL_PRI
C:\Program Files\Microchip\MPLAB ASM30 Suite\bin\..\support\PIC24F\inc/P24FV16KA301.INC:2923   *ABS*:0000ff9f BORV_LPBOR
C:\Program Files\Microchip\MPLAB ASM30 Suite\bin\..\support\PIC24F\inc/P24FV16KA301.INC:2924   *ABS*:0000ffbf BORV_V30
C:\Program Files\Microchip\MPLAB ASM30 Suite\bin\..\support\PIC24F\inc/P24FV16KA301.INC:2925   *ABS*:0000ffdf BORV_V27
C:\Program Files\Microchip\MPLAB ASM30 Suite\bin\..\support\PIC24F\inc/P24FV16KA301.INC:2926   *ABS*:0000ffff BORV_V20
MPLAB ASM30 Listing:  aurora9x18mk2.s 			page 62
Aurora main engine

C:\Program Files\Microchip\MPLAB ASM30 Suite\bin\..\support\PIC24F\inc/P24FV16KA301.INC:2928   *ABS*:0000ff7f MCLRE_OFF
C:\Program Files\Microchip\MPLAB ASM30 Suite\bin\..\support\PIC24F\inc/P24FV16KA301.INC:2929   *ABS*:0000ffff MCLRE_ON
C:\Program Files\Microchip\MPLAB ASM30 Suite\bin\..\support\PIC24F\inc/P24FV16KA301.INC:2941   *ABS*:0000fffd ICS_PGx3
C:\Program Files\Microchip\MPLAB ASM30 Suite\bin\..\support\PIC24F\inc/P24FV16KA301.INC:2942   *ABS*:0000fffe ICS_PGx2
C:\Program Files\Microchip\MPLAB ASM30 Suite\bin\..\support\PIC24F\inc/P24FV16KA301.INC:2943   *ABS*:0000ffff ICS_PGx1
C:\Program Files\Microchip\MPLAB ASM30 Suite\bin\..\support\PIC24F\inc/P24FV16KA301.INC:2980   *ABS*:0000fff0 DSWDTPS_DSWDTPS0
C:\Program Files\Microchip\MPLAB ASM30 Suite\bin\..\support\PIC24F\inc/P24FV16KA301.INC:2981   *ABS*:0000fff1 DSWDTPS_DSWDTPS1
C:\Program Files\Microchip\MPLAB ASM30 Suite\bin\..\support\PIC24F\inc/P24FV16KA301.INC:2982   *ABS*:0000fff2 DSWDTPS_DSWDTPS2
C:\Program Files\Microchip\MPLAB ASM30 Suite\bin\..\support\PIC24F\inc/P24FV16KA301.INC:2983   *ABS*:0000fff3 DSWDTPS_DSWDTPS3
C:\Program Files\Microchip\MPLAB ASM30 Suite\bin\..\support\PIC24F\inc/P24FV16KA301.INC:2984   *ABS*:0000fff4 DSWDTPS_DSWDTPS4
C:\Program Files\Microchip\MPLAB ASM30 Suite\bin\..\support\PIC24F\inc/P24FV16KA301.INC:2985   *ABS*:0000fff5 DSWDTPS_DSWDTPS5
C:\Program Files\Microchip\MPLAB ASM30 Suite\bin\..\support\PIC24F\inc/P24FV16KA301.INC:2986   *ABS*:0000fff6 DSWDTPS_DSWDTPS6
C:\Program Files\Microchip\MPLAB ASM30 Suite\bin\..\support\PIC24F\inc/P24FV16KA301.INC:2987   *ABS*:0000fff7 DSWDTPS_DSWDTPS7
C:\Program Files\Microchip\MPLAB ASM30 Suite\bin\..\support\PIC24F\inc/P24FV16KA301.INC:2988   *ABS*:0000fff8 DSWDTPS_DSWDTPS8
C:\Program Files\Microchip\MPLAB ASM30 Suite\bin\..\support\PIC24F\inc/P24FV16KA301.INC:2989   *ABS*:0000fff9 DSWDTPS_DSWDTPS9
C:\Program Files\Microchip\MPLAB ASM30 Suite\bin\..\support\PIC24F\inc/P24FV16KA301.INC:2990   *ABS*:0000fffa DSWDTPS_DSWDTPSA
C:\Program Files\Microchip\MPLAB ASM30 Suite\bin\..\support\PIC24F\inc/P24FV16KA301.INC:2991   *ABS*:0000fffb DSWDTPS_DSWDTPSB
C:\Program Files\Microchip\MPLAB ASM30 Suite\bin\..\support\PIC24F\inc/P24FV16KA301.INC:2992   *ABS*:0000fffc DSWDTPS_DSWDTPSC
C:\Program Files\Microchip\MPLAB ASM30 Suite\bin\..\support\PIC24F\inc/P24FV16KA301.INC:2993   *ABS*:0000fffd DSWDTPS_DSWDTPSD
C:\Program Files\Microchip\MPLAB ASM30 Suite\bin\..\support\PIC24F\inc/P24FV16KA301.INC:2994   *ABS*:0000fffe DSWDTPS_DSWDTPSE
C:\Program Files\Microchip\MPLAB ASM30 Suite\bin\..\support\PIC24F\inc/P24FV16KA301.INC:2995   *ABS*:0000ffff DSWDTPS_DSWDTPSF
C:\Program Files\Microchip\MPLAB ASM30 Suite\bin\..\support\PIC24F\inc/P24FV16KA301.INC:2997   *ABS*:0000ffef DSWDTOSC_SOSC
C:\Program Files\Microchip\MPLAB ASM30 Suite\bin\..\support\PIC24F\inc/P24FV16KA301.INC:2998   *ABS*:0000ffff DSWDTOSC_LPRC
C:\Program Files\Microchip\MPLAB ASM30 Suite\bin\..\support\PIC24F\inc/P24FV16KA301.INC:3000   *ABS*:0000ffbf DSBOREN_OFF
C:\Program Files\Microchip\MPLAB ASM30 Suite\bin\..\support\PIC24F\inc/P24FV16KA301.INC:3001   *ABS*:0000ffff DSBOREN_ON
C:\Program Files\Microchip\MPLAB ASM30 Suite\bin\..\support\PIC24F\inc/P24FV16KA301.INC:3003   *ABS*:0000ff7f DSWDTEN_OFF
C:\Program Files\Microchip\MPLAB ASM30 Suite\bin\..\support\PIC24F\inc/P24FV16KA301.INC:3004   *ABS*:0000ffff DSWDTEN_ON
                            *ABS*:00000004 b
       ./SONY_TV.INC:8      *ABS*:00000015 IR_key_Power
       ./SONY_TV.INC:9      *ABS*:00000014 IR_key_Muting
       ./SONY_TV.INC:10     *ABS*:00000036 IR_key_Sleep
       ./SONY_TV.INC:11     *ABS*:00000025 IR_key_TV_VCR
       ./SONY_TV.INC:12     *ABS*:0000003a IR_key_Display
       ./SONY_TV.INC:13     *ABS*:00000000 IR_key_1
       ./SONY_TV.INC:14     *ABS*:00000001 IR_key_2
       ./SONY_TV.INC:15     *ABS*:00000002 IR_key_3
       ./SONY_TV.INC:16     *ABS*:00000003 IR_key_4
       ./SONY_TV.INC:17     *ABS*:00000004 IR_key_5
       ./SONY_TV.INC:18     *ABS*:00000005 IR_key_6
       ./SONY_TV.INC:19     *ABS*:00000006 IR_key_7
       ./SONY_TV.INC:20     *ABS*:00000007 IR_key_8
       ./SONY_TV.INC:21     *ABS*:00000008 IR_key_9
       ./SONY_TV.INC:22     *ABS*:00000009 IR_key_0
       ./SONY_TV.INC:23     *ABS*:0000003b IR_key_Jump
       ./SONY_TV.INC:24     *ABS*:0000000b IR_key_Enter
       ./SONY_TV.INC:25     *ABS*:00000012 IR_key_Vol_up
       ./SONY_TV.INC:26     *ABS*:00000013 IR_key_Vol_down
       ./SONY_TV.INC:27     *ABS*:00000010 IR_key_Ch_up
       ./SONY_TV.INC:28     *ABS*:00000011 IR_key_Ch_down
       ./SONY_TV.INC:29     *ABS*:00000016 IR_key_Reset
       ./SONY_TV.INC:30     *ABS*:00000060 IR_key_Menu
       ./SONY_TV.INC:31     *ABS*:00000074 IR_key_up
       ./SONY_TV.INC:32     *ABS*:00000075 IR_key_down
       ./SONY_TV.INC:33     *ABS*:00000034 IR_key_left
       ./SONY_TV.INC:34     *ABS*:00000033 IR_key_right
       ./SONY_TV.INC:35     *ABS*:00000065 IR_key_center
       ./SONY_TV.INC:38     *ABS*:00000001 device_sony_tv
MPLAB ASM30 Listing:  aurora9x18mk2.s 			page 63
Aurora main engine

     ./aurora_main.s:192    .text:0000000a __reset
     ./aurora_main.s:1717   .text:000007b2 __T2Interrupt
     ./aurora_main.s:766    .text:000002bc __T5Interrupt
     ./aurora_main.s:2070   .text:000009e6 __CNInterrupt
     aurora9x18mk2.s:24     *ABS*:00000000 osc_adjust
     aurora9x18mk2.s:26     *ABS*:00001000 speed_step
     aurora9x18mk2.s:27     *ABS*:00007ffe speed_norm
     aurora9x18mk2.s:29     *ABS*:0000000a max_bor
     aurora9x18mk2.s:31     *ABS*:0000000a num_modes
     ./aurora_main.s:419    .text:0000010e mode_tbl_end
     ./aurora_main.s:408    .text:000000fa mode_tbl
     aurora9x18mk2.s:34     *ABS*:00000000 shutoff_time
     aurora9x18mk2.s:45     *ABS*:000000ff max_duty
     aurora9x18mk2.s:46     *ABS*:0000002a port_delay
     aurora9x18mk2.s:47     *ABS*:00000000 port_delay_comp
     aurora9x18mk2.s:48     *ABS*:00000044 port_blank
     aurora9x18mk2.s:49     *ABS*:000000ba pr_value
     aurora9x18mk2.s:52     *ABS*:00001c04 OCCON_VAL
     aurora9x18mk2.s:54     *ABS*:0000100c OCCON2_VAL
     aurora9x18mk2.s:57     *ABS*:00000010 debounce_time
     aurora9x18mk2.s:58     *ABS*:0000ffff debounce_bits
     aurora9x18mk2.s:59     *ABS*:000000f0 long_push_time
     aurora9x18mk2.s:62     *ABS*:00007d00 start_bit
     aurora9x18mk2.s:63     *ABS*:00003840 bit_threshold
     aurora9x18mk2.s:64     *ABS*:00000001 accept_dev
     aurora9x18mk2.s:65     *ABS*:000000fa IR_timeout_pr
     aurora9x18mk2.s:73     *ABS*:00000000 SW1_BIT
     aurora9x18mk2.s:74     *ABS*:00000002 SW1_CN
     aurora9x18mk2.s:79     *ABS*:0000000f IR_BIT
     aurora9x18mk2.s:80     *ABS*:0000000b IR_CN
     aurora9x18mk2.s:85     *ABS*:0000000e AN_IN_BIT
     aurora9x18mk2.s:86     *ABS*:0000000c AN_IN_CN
     aurora9x18mk2.s:87     *ABS*:0000000a AN_IN_APIN
     aurora9x18mk2.s:96     *ABS*:00000001 COL_POL
     aurora9x18mk2.s:97     *ABS*:00000000 ROW_POL
     aurora9x18mk2.s:99     *ABS*:00000009 num_COLs
     aurora9x18mk2.s:100    *ABS*:00000001 num_ROWs
     aurora9x18mk2.s:101    *ABS*:00000009 num_LEDs
     aurora9x18mk2.s:104    *ABS*:00000000 LED_1_PORT
                            *ABS*:00000000 _RA_
     aurora9x18mk2.s:105    *ABS*:00000003 LED_1_PIN
     aurora9x18mk2.s:107    *ABS*:00000000 LED_2_PORT
     aurora9x18mk2.s:108    *ABS*:00000002 LED_2_PIN
     aurora9x18mk2.s:110    *ABS*:0000000a LED_3_PORT
                            *ABS*:0000000a _RB_
     aurora9x18mk2.s:111    *ABS*:00000002 LED_3_PIN
     aurora9x18mk2.s:113    *ABS*:0000000a LED_4_PORT
     aurora9x18mk2.s:114    *ABS*:0000000d LED_4_PIN
     aurora9x18mk2.s:116    *ABS*:0000000a LED_5_PORT
     aurora9x18mk2.s:117    *ABS*:0000000c LED_5_PIN
     aurora9x18mk2.s:119    *ABS*:0000000a LED_6_PORT
     aurora9x18mk2.s:120    *ABS*:00000009 LED_6_PIN
     aurora9x18mk2.s:122    *ABS*:0000000a LED_7_PORT
     aurora9x18mk2.s:123    *ABS*:00000008 LED_7_PIN
     aurora9x18mk2.s:125    *ABS*:00000000 LED_8_PORT
     aurora9x18mk2.s:126    *ABS*:00000004 LED_8_PIN
     aurora9x18mk2.s:128    *ABS*:0000000a LED_9_PORT
MPLAB ASM30 Listing:  aurora9x18mk2.s 			page 64
Aurora main engine

     aurora9x18mk2.s:129    *ABS*:00000004 LED_9_PIN
     aurora9x18mk2.s:131    *ABS*:00000005 PORTA_bits
     aurora9x18mk2.s:132    *ABS*:00000010 PORTB_bits
     aurora9x18mk2.s:133    *ABS*:00000000 PORTC_bits
     aurora9x18mk2.s:137    *ABS*:00000007 PWM_R_PIN
     aurora9x18mk2.s:142    *ABS*:00000001 PWM_G_PIN
     aurora9x18mk2.s:147    *ABS*:00000000 PWM_B_PIN
     aurora9x18mk2.s:153    *ABS*:0000002a _RC_
     aurora9x18mk2.s:157    .text:00000000 LED_pins
     ./aurora_main.s:18     *ABS*:00000000 mode_save
     ./aurora_main.s:19     *ABS*:00000002 speed_save
     ./aurora_main.s:26     .data:00000000 mode_num
     ./aurora_main.s:27     .data:00000002 bor_count
     ./aurora_main.s:29     .data:00000004 var_start
     ./aurora_main.s:32     .data:00000004 IR_flags
     ./aurora_main.s:33     .data:00000004 g_flags
                            *ABS*:00000000 do_not_read
                            *ABS*:00000001 HSV_mode
                            *ABS*:00000002 RND_mode
                            *ABS*:00000003 analog
                            *ABS*:00000004 an_peak
                            *ABS*:00000005 IR_RCV
                            *ABS*:00000007 IR_RCD
                            *ABS*:00000008 dimmed1
                            *ABS*:00000009 dimmed2
                            *ABS*:0000000a ai_detected
                            *ABS*:0000000b no_LED
     ./aurora_main.s:52     .data:00000006 IR_keycode
     ./aurora_main.s:53     .data:00000008 IR_device
     ./aurora_main.s:54     .data:0000000a _IR_data
     ./aurora_main.s:55     .data:0000000c IR_timeout
     ./aurora_main.s:56     .data:0000000e _IR_last_data
     ./aurora_main.s:57     .data:00000010 IR_last_key
     ./aurora_main.s:60     *ABS*:00000003 ana_devbit1
     ./aurora_main.s:61     *ABS*:00000008 ana_samples1
     ./aurora_main.s:62     *ABS*:00000005 ana_devbit2
     ./aurora_main.s:63     *ABS*:00000008 ana_samples2
     ./aurora_main.s:64     .data:00000012 analog_buf1
     ./aurora_main.s:65     .data:00000022 analog_ptr1
     ./aurora_main.s:66     .data:00000024 analog_buf2
     ./aurora_main.s:67     .data:00000034 analog_ptr2
     ./aurora_main.s:68     .data:00000036 analog_val1
     ./aurora_main.s:69     .data:00000038 analog_val2
     ./aurora_main.s:70     .data:0000003a analog_val3
     ./aurora_main.s:71     .data:0000003c analog_avg1
     ./aurora_main.s:72     .data:0000003e analog_avg2
     ./aurora_main.s:73     .data:00000040 an_peak_time
     ./aurora_main.s:74     .data:00000042 an_peak_cnt
     ./aurora_main.s:75     .data:00000044 an_offset
     ./aurora_main.s:78     .data:00000046 btn_data
                            *ABS*:00000000 button_flags
                            *ABS*:00000000 btn_down
                            *ABS*:00000001 btn_long
                            *ABS*:00000002 btn_push
                            *ABS*:00000002 samples
                            *ABS*:00000004 long_push
     ./aurora_main.s:86     .data:00000046 btnA_data
MPLAB ASM30 Listing:  aurora9x18mk2.s 			page 65
Aurora main engine

     ./aurora_main.s:89     .data:0000004c update_rate
     ./aurora_main.s:90     .data:0000004e update_cnt
     ./aurora_main.s:92     .data:00000050 anim_params
                            *ABS*:00000000 anim_delay
                            *ABS*:00000002 anim_duty_diff
                            *ABS*:00000004 anim_step_up
                            *ABS*:00000006 anim_step_down
                            *ABS*:00000008 anim_update_rate
                            *ABS*:0000000a anim_update
                            *ABS*:0000000c anim_max_duty
                            *ABS*:0000000e anim_release_waitH
                            *ABS*:00000010 anim_release_waitL
                            *ABS*:00000012 anim_flags
                            *ABS*:00000000 af_direction
                            *ABS*:00000001 af_duty_hold_rs
                            *ABS*:00000014 anim_release_cnt
     ./aurora_main.s:107    .data:00000050 anim_params_R
     ./aurora_main.s:108    .data:00000050 delay_R
     ./aurora_main.s:109    .data:00000052 duty_diff_R
     ./aurora_main.s:110    .data:00000054 step_up_R
     ./aurora_main.s:111    .data:00000056 step_down_R
     ./aurora_main.s:112    .data:00000058 update_rate_R
     ./aurora_main.s:113    .data:0000005a update_R
     ./aurora_main.s:114    .data:0000005c max_duty_R
     ./aurora_main.s:115    .data:0000005e release_waitH_R
     ./aurora_main.s:116    .data:00000060 release_waitL_R
     ./aurora_main.s:117    .data:00000062 anim_flags_R
     ./aurora_main.s:118    .data:00000064 release_cnt_R
     ./aurora_main.s:120    .data:00000076 anim_params_G
     ./aurora_main.s:121    .data:00000076 delay_G
     ./aurora_main.s:122    .data:00000078 duty_diff_G
     ./aurora_main.s:123    .data:0000007a step_up_G
     ./aurora_main.s:124    .data:0000007c step_down_G
     ./aurora_main.s:125    .data:0000007e update_rate_G
     ./aurora_main.s:126    .data:00000080 update_G
     ./aurora_main.s:127    .data:00000082 max_duty_G
     ./aurora_main.s:128    .data:00000084 release_waitH_G
     ./aurora_main.s:129    .data:00000086 release_waitL_G
     ./aurora_main.s:130    .data:00000088 anim_flags_G
     ./aurora_main.s:131    .data:0000008a release_cnt_G
     ./aurora_main.s:133    .data:0000009c anim_params_B
     ./aurora_main.s:134    .data:0000009c delay_B
     ./aurora_main.s:135    .data:0000009e duty_diff_B
     ./aurora_main.s:136    .data:000000a0 step_up_B
     ./aurora_main.s:137    .data:000000a2 step_down_B
     ./aurora_main.s:138    .data:000000a4 update_rate_B
     ./aurora_main.s:139    .data:000000a6 update_B
     ./aurora_main.s:140    .data:000000a8 max_duty_B
     ./aurora_main.s:141    .data:000000aa release_waitH_B
     ./aurora_main.s:142    .data:000000ac release_waitL_B
     ./aurora_main.s:143    .data:000000ae anim_flags_B
     ./aurora_main.s:144    .data:000000b0 release_cnt_B
     ./aurora_main.s:146    .data:000000c2 preprocess
     ./aurora_main.s:150    .data:000000c4 LED_data
                            *ABS*:0000000e DUTY_DIR
                            *ABS*:0000000f DUTY_HOLD
     ./aurora_main.s:153    .data:000000c4 LED_data_R
MPLAB ASM30 Listing:  aurora9x18mk2.s 			page 66
Aurora main engine

     ./aurora_main.s:154    .data:000000c4 LED_data_R1
     ./aurora_main.s:156    .data:000000d6 LED_data_G
     ./aurora_main.s:157    .data:000000d6 LED_data_G1
     ./aurora_main.s:159    .data:000000e8 LED_data_B
     ./aurora_main.s:160    .data:000000e8 LED_data_B1
     ./aurora_main.s:163    .data:000000fa LED_data_H
     ./aurora_main.s:164    .data:0000010c LED_data_S
     ./aurora_main.s:165    .data:0000011e LED_data_V
     ./aurora_main.s:168    .data:00000130 RGB
     ./aurora_main.s:169    .data:00000132 output_duty
     ./aurora_main.s:170    .data:00000134 pulse_duration
     ./aurora_main.s:172    .data:00000136 duty_buff
     ./aurora_main.s:173    .data:00000136 duty_buff_R
     ./aurora_main.s:174    .data:00000160 duty_buff_G
     ./aurora_main.s:175    .data:0000018a duty_buff_B
     ./aurora_main.s:177    .data:000001b4 port_buff
     ./aurora_main.s:180    .data:000001ba var_I
     ./aurora_main.s:181    .data:000001bc var_H
     ./aurora_main.s:182    .data:000001be var_1
     ./aurora_main.s:183    .data:000001c0 var_2
     ./aurora_main.s:184    .data:000001c2 var_3
     ./aurora_main.s:186    .data:000001c4 end_of_vars
     ./aurora_main.s:193    .text:0000000a $AUTOLINE$
     ./aurora_main.s:210    .text:0000001e L1
     ./aurora_main.s:236    .text:00000034 hot_start
     ./aurora_main.s:229    .text:0000002a cold_start
     ./aurora_main.s:319    .text:00000092 L2
     ./aurora_main.s:338    .text:000000a8 L3
     ./aurora_main.s:344    .text:000000ae startup
     ./aurora_main.s:2058   .text:000009da eeprom_read
     ./aurora_main.s:394    .text:000000e2 L4
     ./aurora_main.s:396    .text:000000e6 L11
     ./aurora_main.s:406    .text:000000f6 L12
     ./aurora_main.s:405    .text:000000f4 L5
     ./aurora_main.s:422    .text:0000010e mode_01
     ./aurora_main.s:468    .text:00000146 mode_02
     ./aurora_main.s:519    .text:00000186 mode_03
     ./aurora_main.s:515    .text:00000180 mode_04
     ./aurora_main.s:561    .text:000001b8 mode_05
     ./aurora_main.s:559    .text:000001b6 mode_06
     ./aurora_main.s:625    .text:0000020e mode_07
     ./aurora_main.s:676    .text:0000024c test_01
     ./aurora_main.s:735    .text:0000029a audio_01
     ./aurora_main.s:749    .text:000002aa audio_02
     ./aurora_main.s:833    .text:00000318 main
     ./aurora_main.s:742    .text:000002a2 L6
     ./aurora_main.s:1029   .text:0000042c mode_change
     ./aurora_main.s:1243   .text:00000546 analog_LED3
     ./aurora_main.s:756    .text:000002b2 L7
     ./aurora_main.s:1175   .text:000004f2 analog_LED2
     ./aurora_main.s:767    .text:000002bc power_down
     ./aurora_main.s:783    .text:000002d2 L8
     ./aurora_main.s:787    .text:000002d8 L9
     ./aurora_main.s:792    .text:000002e0 L13
     ./aurora_main.s:827    .text:00000314 wake_up
     ./aurora_main.s:813    .text:000002fe L10
     ./aurora_main.s:823    .text:0000030e verify_dev
MPLAB ASM30 Listing:  aurora9x18mk2.s 			page 67
Aurora main engine

     ./aurora_main.s:840    .text:0000031e main_loop
     ./aurora_main.s:1016   .text:0000041c skip_IR
     ./aurora_main.s:906    .text:0000038c IR_key_table
     ./aurora_main.s:930    .text:000003ba IR_key_table_end
     ./aurora_main.s:871    .text:0000034a L11
     ./aurora_main.s:876    .text:00000354 IR_key_match
     ./aurora_main.s:933    .text:000003ba func_next_mode
     ./aurora_main.s:937    .text:000003be func_prev_mode
     ./aurora_main.s:941    .text:000003c2 func_pause
     ./aurora_main.s:954    .text:000003d4 func_inc_speed
     ./aurora_main.s:974    .text:000003e8 func_dec_speed
     ./aurora_main.s:991    .text:000003fa func_jump
     ./aurora_main.s:995    .text:000003fe func_dimm
     ./aurora_main.s:1003   .text:0000040a func_reset
     ./aurora_main.s:946    .text:000003ca L14
     ./aurora_main.s:2029   .text:000009b2 eeprom_write
     ./aurora_main.s:1427   .text:00000620 button_check
     ./aurora_main.s:1043   .text:00000442 L12
     ./aurora_main.s:1031   .text:0000042e L15
     ./aurora_main.s:1045   .text:00000442 animate
     ./aurora_main.s:1050   .text:0000044c L13
     ./aurora_main.s:1318   .text:000005ae analog_input
     ./aurora_main.s:1054   .text:00000452 L16
     ./aurora_main.s:1059   .text:0000045a L14
     ./aurora_main.s:1082   .text:0000047c animate_HSV
     ./aurora_main.s:1063   .text:0000045e animate_RGB
     ./aurora_main.s:1485   .text:00000662 animate_LED
     ./aurora_main.s:1581   .text:000006ee convert_HSV
     ./aurora_main.s:1106   .text:0000049a analog_LED1
     ./aurora_main.s:1107   *ABS*:00000108 adc_floor_R
     ./aurora_main.s:1108   *ABS*:00000046 adc_step_R
     ./aurora_main.s:1109   *ABS*:0000011f adc_floor_G
     ./aurora_main.s:1110   *ABS*:0000005a adc_step_G
     ./aurora_main.s:1111   *ABS*:00000194 adc_floor_B
     ./aurora_main.s:1112   *ABS*:00000082 adc_step_B
     ./aurora_main.s:1120   .text:000004a2 L17
     ./aurora_main.s:1126   .text:000004ac L21
     ./aurora_main.s:1127   .text:000004ae L31
     ./aurora_main.s:1129   .text:000004b2 L15
     ./aurora_main.s:1138   .text:000004be L18
     ./aurora_main.s:1144   .text:000004c8 L22
     ./aurora_main.s:1145   .text:000004ca L32
     ./aurora_main.s:1147   .text:000004ce L16
     ./aurora_main.s:1156   .text:000004da L19
     ./aurora_main.s:1162   .text:000004e4 L23
     ./aurora_main.s:1164   .text:000004e6 L33
     ./aurora_main.s:1166   .text:000004ea L17
     ./aurora_main.s:1176   *ABS*:00000108 adc_floor_V
     ./aurora_main.s:1177   *ABS*:00000046 adc_step_V
     ./aurora_main.s:1178   *ABS*:0000012c adc_floor_H
     ./aurora_main.s:1179   *ABS*:0000000a adc_step_H
     ./aurora_main.s:1180   *ABS*:0000000a adc_floor_S
     ./aurora_main.s:1181   *ABS*:00000001 adc_step_S
     ./aurora_main.s:1189   .text:000004fa L110
     ./aurora_main.s:1195   .text:00000504 L24
     ./aurora_main.s:1196   .text:00000506 L34
     ./aurora_main.s:1198   .text:0000050a L18
MPLAB ASM30 Listing:  aurora9x18mk2.s 			page 68
Aurora main engine

     ./aurora_main.s:1210   .text:0000051a L111
     ./aurora_main.s:1215   .text:00000522 L25
     ./aurora_main.s:1216   .text:00000524 L35
     ./aurora_main.s:1218   .text:00000528 L19
     ./aurora_main.s:1244   *ABS*:00000244 peak_thres_h
     ./aurora_main.s:1245   *ABS*:000001f4 peak_thres_l
     ./aurora_main.s:1246   *ABS*:00000040 peak_reset
     ./aurora_main.s:1261   .text:0000055a L112
     ./aurora_main.s:1269   .text:0000056a L20
     ./aurora_main.s:1277   .text:00000578 L21
     ./aurora_main.s:1294   .text:00000594 swap_R_B
     ./aurora_main.s:1290   .text:0000058e swap_R_G
     ./aurora_main.s:1298   .text:0000059a swap_G_B
     ./aurora_main.s:1301   .text:0000059e L113
     ./aurora_main.s:1304   .text:000005a2 L22
     ./aurora_main.s:1317   *ABS*:00000020 adc_floor
     ./aurora_main.s:1376   *ABS*:00000190 ana_knee_point
     ./aurora_main.s:1382   .text:000005e6 L23
     ./aurora_main.s:1387   .text:000005ee L24
     ./aurora_main.s:1393   .text:000005f6 L25
     ./aurora_main.s:1394   .text:000005f8 L114
     ./aurora_main.s:1407   .text:0000060a L26
     ./aurora_main.s:1408   .text:0000060c L115
     ./aurora_main.s:1419   .text:0000061c L27
     ./aurora_main.s:1420   .text:0000061e L116
     ./aurora_main.s:1439   .text:0000062e check_one_button
     ./aurora_main.s:1454   .text:00000642 button_down
     ./aurora_main.s:1444   .text:00000632 button_up
     ./aurora_main.s:1452   .text:00000640 L28
     ./aurora_main.s:1464   .text:00000652 button_held
     ./aurora_main.s:1469   .text:0000065a L29
     ./aurora_main.s:1491   .text:0000066c L30
     ./aurora_main.s:1497   .text:00000676 L31
     ./aurora_main.s:1515   .text:00000690 L117
     ./aurora_main.s:1516   .text:00000692 L26
     ./aurora_main.s:1520   .text:00000694 LED_loop
     ./aurora_main.s:1529   .text:000006a2 L118
     ./aurora_main.s:1563   .text:000006d6 L27
     ./aurora_main.s:1548   .text:000006c0 LED_rampDown
     ./aurora_main.s:1532   .text:000006a6 LED_rampUp
     ./aurora_main.s:1588   .text:000006f6 L32
     ./aurora_main.s:1619   .text:00000716 HSV2RGB
     ./aurora_main.s:1605   .text:00000712 L119
     ./aurora_main.s:1626   .text:00000722 L33
     ./aurora_main.s:1670   .text:0000076a var_I0
     ./aurora_main.s:1677   .text:00000776 var_I1
     ./aurora_main.s:1684   .text:00000782 var_I2
     ./aurora_main.s:1691   .text:0000078e var_I3
     ./aurora_main.s:1698   .text:0000079a var_I4
     ./aurora_main.s:1705   .text:000007a6 var_I5
     ./aurora_main.s:1855   .text:0000084c Blanking
     ./aurora_main.s:1757   .text:000007dc Ch_G
     ./aurora_main.s:1784   .text:000007f6 Ch_B
     ./aurora_main.s:1729   .text:000007c2 Ch_R
     ./aurora_main.s:1906   .text:00000884 update_ports_G
     ./aurora_main.s:1889   .text:00000872 RGB_done
     ./aurora_main.s:1910   .text:0000088a update_ports_B
MPLAB ASM30 Listing:  aurora9x18mk2.s 			page 69
Aurora main engine

     ./aurora_main.s:1867   .text:00000854 B_done
     ./aurora_main.s:1811   .text:00000812 MSB_done
     ./aurora_main.s:1825   .text:00000824 L34
     ./aurora_main.s:1837   .text:00000834 L35
     ./aurora_main.s:1849   .text:00000844 L36
     ./aurora_main.s:1998   .text:000008b2 duty_LUT
     ./aurora_main.s:1879   .text:00000866 L37
     ./aurora_main.s:1902   .text:0000087e update_ports_R
     ./aurora_main.s:1913   .text:0000088e L120
     ./aurora_main.s:1920   .text:00000894 L38
     ./aurora_main.s:1929   .text:0000089c L121
     ./aurora_main.s:1944   .text:000008a6 L39
     ./aurora_main.s:1955   .text:000008ae L122
     ./aurora_main.s:1995   *ABS*:00000006 duty_knee
     ./aurora_main.s:1996   *ABS*:00000075 max_pulse_length
     ./aurora_main.s:2002   *ABS*:000000f2 x
     ./aurora_main.s:2007   *ABS*:00000075 y
     ./aurora_main.s:2028   *ABS*:007ffe00 eeprom_addr
     ./aurora_main.s:2051   .text:000009d2 L40
     ./aurora_main.s:2082   .text:000009f8 IR_read_timer
     ./aurora_main.s:2075   .text:000009ec IR_start_timer
     ./aurora_main.s:2120   .text:00000a2c IR_end
     ./aurora_main.s:2115   .text:00000a26 IR_start_bit
     ./aurora_main.s:2091   .text:00000a02 IR_long_short
     ./aurora_main.s:2095   .text:00000a08 IR_data_end
     ./aurora_main.s:2097   .text:00000a0a IR_data_done
     ./aurora_main.s:2104   .text:00000a16 IR_data_verified
     ./aurora_main.s:2111   .text:00000a22 IR_data_discard

UNDEFINED SYMBOLS
SPLIM
TBLPAG
PSVPAG
SR
CORCON
CNPD1
CNEN1
CNPU1
INTCON1
IFS0
IFS1
IEC0
IEC1
PR1
T1CON
TMR3
PR2
PR3
T2CON
T3CON
OC1CON1
OC1CON2
OC1RS
OC1R
OC2CON1
OC2CON2
OC2RS
MPLAB ASM30 Listing:  aurora9x18mk2.s 			page 70
Aurora main engine

OC2R
OC3CON1
OC3CON2
OC3RS
OC3R
TRISA
PORTA
LATA
TRISB
PORTB
LATB
ADC1BUF0
AD1CON1
AD1CON3
AD1CHS
ANSELA
ANSELB
RCON
CLKDIV
OSCTUN
NVMCON
NVMKEY
__SP_init
__SPLIM_init

EQUATE SYMBOLS
Z:/akimitsu On My Mac/Dropbox/tech stuff/LED Artist/Aurora/-firmware/9x18mk2/aurora9x18mk2-1.4/aurora_main.s = 0x0
Z:/akimitsu On My Mac/Dropbox/tech stuff/LED Artist/Aurora/-firmware/9x18mk2/aurora9x18mk2-1.4/SONY_TV.INC = 0x0
C:/Program Files/Microchip/MPLAB ASM30 Suite/support/PIC24F/inc/P24FV16KA301.INC = 0x0
Z:/akimitsu On My Mac/Dropbox/tech stuff/LED Artist/Aurora/-firmware/9x18mk2/aurora9x18mk2-1.4/aurora9x18mk2.s = 0x0
                   __24FV16KA301 = 0x1
                       __PIC24FK = 0x1
                    __HAS_EEDATA = 0x1
                 __HAS_CODEGUARD = 0x1
                    __HAS_5VOLTS = 0x1
                       __C30COFF = 0x1
                          WREG0L = _WREG0
                          WREG0H = _WREG0
                          WREG1L = _WREG1
                          WREG1H = _WREG1
                          WREG2L = _WREG2
                          WREG2H = _WREG2
                          WREG3L = _WREG3
                          WREG3H = _WREG3
                          WREG4L = _WREG4
                          WREG4H = _WREG4
                          WREG5L = _WREG5
                          WREG5H = _WREG5
                          WREG6L = _WREG6
                          WREG6H = _WREG6
                          WREG7L = _WREG7
                          WREG7H = _WREG7
                          WREG8L = _WREG8
                          WREG8H = _WREG8
                          WREG9L = _WREG9
                          WREG9H = _WREG9
                         WREG10L = _WREG10
                         WREG10H = _WREG10
                         WREG11L = _WREG11
                         WREG11H = _WREG11
                         WREG12L = _WREG12
                         WREG12H = _WREG12
                         WREG13L = _WREG13
                         WREG13H = _WREG13
                         WREG14L = _WREG14
                         WREG14H = _WREG14
                         WREG15L = _WREG15
                         WREG15H = _WREG15
                          SPLIML = _SPLIM
                          SPLIMH = _SPLIM
                            PCLL = _PCL
                            PCLH = _PCL
                            PCHL = _PCH
                            PCHH = _PCH
                         TBLPAGL = _TBLPAG
                         TBLPAGH = _TBLPAG
                         PSVPAGL = _PSVPAG
                         PSVPAGH = _PSVPAG
                         RCOUNTL = _RCOUNT
                         RCOUNTH = _RCOUNT
                             SRL = _SR
                             SRH = _SR
                         CORCONL = _CORCON
                         CORCONH = _CORCON
                        DISICNTL = _DISICNT
                        DISICNTH = _DISICNT
                          CNPD1L = _CNPD1
                          CNPD1H = _CNPD1
                          CNPD2L = _CNPD2
                          CNPD2H = _CNPD2
                          CNPD3L = _CNPD3
                          CNPD3H = _CNPD3
                          CNEN1L = _CNEN1
                          CNEN1H = _CNEN1
                          CNEN2L = _CNEN2
                          CNEN2H = _CNEN2
                          CNEN3L = _CNEN3
                          CNEN3H = _CNEN3
                          CNPU1L = _CNPU1
                          CNPU1H = _CNPU1
                          CNPU2L = _CNPU2
                          CNPU2H = _CNPU2
                          CNPU3L = _CNPU3
                          CNPU3H = _CNPU3
                        INTCON1L = _INTCON1
                        INTCON1H = _INTCON1
                        INTCON2L = _INTCON2
                        INTCON2H = _INTCON2
                           IFS0L = _IFS0
                           IFS0H = _IFS0
                           IFS1L = _IFS1
                           IFS1H = _IFS1
                           IFS2L = _IFS2
                           IFS2H = _IFS2
                           IFS3L = _IFS3
                           IFS3H = _IFS3
                           IFS4L = _IFS4
                           IFS4H = _IFS4
                           IFS5L = _IFS5
                           IFS5H = _IFS5
                           IEC0L = _IEC0
                           IEC0H = _IEC0
                           IEC1L = _IEC1
                           IEC1H = _IEC1
                           IEC2L = _IEC2
                           IEC2H = _IEC2
                           IEC3L = _IEC3
                           IEC3H = _IEC3
                           IEC4L = _IEC4
                           IEC4H = _IEC4
                           IEC5L = _IEC5
                           IEC5H = _IEC5
                           IPC0L = _IPC0
                           IPC0H = _IPC0
                           IPC1L = _IPC1
                           IPC1H = _IPC1
                           IPC2L = _IPC2
                           IPC2H = _IPC2
                           IPC3L = _IPC3
                           IPC3H = _IPC3
                           IPC4L = _IPC4
                           IPC4H = _IPC4
                           IPC5L = _IPC5
                           IPC5H = _IPC5
                           IPC6L = _IPC6
                           IPC6H = _IPC6
                           IPC7L = _IPC7
                           IPC7H = _IPC7
                           IPC8L = _IPC8
                           IPC8H = _IPC8
                           IPC9L = _IPC9
                           IPC9H = _IPC9
                          IPC12L = _IPC12
                          IPC12H = _IPC12
                          IPC15L = _IPC15
                          IPC15H = _IPC15
                          IPC16L = _IPC16
                          IPC16H = _IPC16
                          IPC18L = _IPC18
                          IPC18H = _IPC18
                          IPC19L = _IPC19
                          IPC19H = _IPC19
                          IPC20L = _IPC20
                          IPC20H = _IPC20
                        INTTREGL = _INTTREG
                        INTTREGH = _INTTREG
                           TMR1L = _TMR1
                           TMR1H = _TMR1
                            PR1L = _PR1
                            PR1H = _PR1
                          T1CONL = _T1CON
                          T1CONH = _T1CON
                           TMR2L = _TMR2
                           TMR2H = _TMR2
                        TMR3HLDL = _TMR3HLD
                        TMR3HLDH = _TMR3HLD
                           TMR3L = _TMR3
                           TMR3H = _TMR3
                            PR2L = _PR2
                            PR2H = _PR2
                            PR3L = _PR3
                            PR3H = _PR3
                          T2CONL = _T2CON
                          T2CONH = _T2CON
                          T3CONL = _T3CON
                          T3CONH = _T3CON
                           TMR4L = _TMR4
                           TMR4H = _TMR4
                        TMR5HLDL = _TMR5HLD
                        TMR5HLDH = _TMR5HLD
                           TMR5L = _TMR5
                           TMR5H = _TMR5
                            PR4L = _PR4
                            PR4H = _PR4
                            PR5L = _PR5
                            PR5H = _PR5
                          T4CONL = _T4CON
                          T4CONH = _T4CON
                          T5CONL = _T5CON
                          T5CONH = _T5CON
                        IC1CON1L = _IC1CON1
                        IC1CON1H = _IC1CON1
                        IC1CON2L = _IC1CON2
                        IC1CON2H = _IC1CON2
                         IC1BUFL = _IC1BUF
                         IC1BUFH = _IC1BUF
                         IC1TMRL = _IC1TMR
                         IC1TMRH = _IC1TMR
                        IC2CON1L = _IC2CON1
                        IC2CON1H = _IC2CON1
                        IC2CON2L = _IC2CON2
                        IC2CON2H = _IC2CON2
                         IC2BUFL = _IC2BUF
                         IC2BUFH = _IC2BUF
                         IC2TMRL = _IC2TMR
                         IC2TMRH = _IC2TMR
                        IC3CON1L = _IC3CON1
                        IC3CON1H = _IC3CON1
                        IC3CON2L = _IC3CON2
                        IC3CON2H = _IC3CON2
                         IC3BUFL = _IC3BUF
                         IC3BUFH = _IC3BUF
                         IC3TMRL = _IC3TMR
                         IC3TMRH = _IC3TMR
                        OC1CON1L = _OC1CON1
                        OC1CON1H = _OC1CON1
                        OC1CON2L = _OC1CON2
                        OC1CON2H = _OC1CON2
                          OC1RSL = _OC1RS
                          OC1RSH = _OC1RS
                           OC1RL = _OC1R
                           OC1RH = _OC1R
                         OC1TMRL = _OC1TMR
                         OC1TMRH = _OC1TMR
                        OC2CON1L = _OC2CON1
                        OC2CON1H = _OC2CON1
                        OC2CON2L = _OC2CON2
                        OC2CON2H = _OC2CON2
                          OC2RSL = _OC2RS
                          OC2RSH = _OC2RS
                           OC2RL = _OC2R
                           OC2RH = _OC2R
                         OC2TMRL = _OC2TMR
                         OC2TMRH = _OC2TMR
                        OC3CON1L = _OC3CON1
                        OC3CON1H = _OC3CON1
                        OC3CON2L = _OC3CON2
                        OC3CON2H = _OC3CON2
                          OC3RSL = _OC3RS
                          OC3RSH = _OC3RS
                           OC3RL = _OC3R
                           OC3RH = _OC3R
                         OC3TMRL = _OC3TMR
                         OC3TMRH = _OC3TMR
                        I2C1RCVL = _I2C1RCV
                        I2C1RCVH = _I2C1RCV
                        I2C1TRNL = _I2C1TRN
                        I2C1TRNH = _I2C1TRN
                        I2C1BRGL = _I2C1BRG
                        I2C1BRGH = _I2C1BRG
                        I2C1CONL = _I2C1CON
                        I2C1CONH = _I2C1CON
                       I2C1STATL = _I2C1STAT
                       I2C1STATH = _I2C1STAT
                        I2C1ADDL = _I2C1ADD
                        I2C1ADDH = _I2C1ADD
                        I2C1MSKL = _I2C1MSK
                        I2C1MSKH = _I2C1MSK
                        I2C2RCVL = _I2C2RCV
                        I2C2RCVH = _I2C2RCV
                        I2C2TRNL = _I2C2TRN
                        I2C2TRNH = _I2C2TRN
                        I2C2BRGL = _I2C2BRG
                        I2C2BRGH = _I2C2BRG
                        I2C2CONL = _I2C2CON
                        I2C2CONH = _I2C2CON
                       I2C2STATL = _I2C2STAT
                       I2C2STATH = _I2C2STAT
                        I2C2ADDL = _I2C2ADD
                        I2C2ADDH = _I2C2ADD
                        I2C2MSKL = _I2C2MSK
                        I2C2MSKH = _I2C2MSK
                         U1MODEL = _U1MODE
                         U1MODEH = _U1MODE
                          U1STAL = _U1STA
                          U1STAH = _U1STA
                        U1TXREGL = _U1TXREG
                        U1TXREGH = _U1TXREG
                        U1RXREGL = _U1RXREG
                        U1RXREGH = _U1RXREG
                          U1BRGL = _U1BRG
                          U1BRGH = _U1BRG
                         U2MODEL = _U2MODE
                         U2MODEH = _U2MODE
                          U2STAL = _U2STA
                          U2STAH = _U2STA
                        U2TXREGL = _U2TXREG
                        U2TXREGH = _U2TXREG
                        U2RXREGL = _U2RXREG
                        U2RXREGH = _U2RXREG
                          U2BRGL = _U2BRG
                          U2BRGH = _U2BRG
                       SPI1STATL = _SPI1STAT
                       SPI1STATH = _SPI1STAT
                       SPI1CON1L = _SPI1CON1
                       SPI1CON1H = _SPI1CON1
                       SPI1CON2L = _SPI1CON2
                       SPI1CON2H = _SPI1CON2
                        SPI1BUFL = _SPI1BUF
                        SPI1BUFH = _SPI1BUF
                       SPI2STATL = _SPI2STAT
                       SPI2STATH = _SPI2STAT
                       SPI2CON1L = _SPI2CON1
                       SPI2CON1H = _SPI2CON1
                       SPI2CON2L = _SPI2CON2
                       SPI2CON2H = _SPI2CON2
                        SPI2BUFL = _SPI2BUF
                        SPI2BUFH = _SPI2BUF
                          TRISAL = _TRISA
                          TRISAH = _TRISA
                          PORTAL = _PORTA
                          PORTAH = _PORTA
                           LATAL = _LATA
                           LATAH = _LATA
                           ODCAL = _ODCA
                           ODCAH = _ODCA
                          TRISBL = _TRISB
                          TRISBH = _TRISB
                          PORTBL = _PORTB
                          PORTBH = _PORTB
                           LATBL = _LATB
                           LATBH = _LATB
                           ODCBL = _ODCB
                           ODCBH = _ODCB
                        PADCFG1L = _PADCFG1
                        PADCFG1H = _PADCFG1
                       ADC1BUF0L = _ADC1BUF0
                       ADC1BUF0H = _ADC1BUF0
                       ADC1BUF1L = _ADC1BUF1
                       ADC1BUF1H = _ADC1BUF1
                       ADC1BUF2L = _ADC1BUF2
                       ADC1BUF2H = _ADC1BUF2
                       ADC1BUF3L = _ADC1BUF3
                       ADC1BUF3H = _ADC1BUF3
                       ADC1BUF4L = _ADC1BUF4
                       ADC1BUF4H = _ADC1BUF4
                       ADC1BUF5L = _ADC1BUF5
                       ADC1BUF5H = _ADC1BUF5
                       ADC1BUF6L = _ADC1BUF6
                       ADC1BUF6H = _ADC1BUF6
                       ADC1BUF7L = _ADC1BUF7
                       ADC1BUF7H = _ADC1BUF7
                       ADC1BUF8L = _ADC1BUF8
                       ADC1BUF8H = _ADC1BUF8
                       ADC1BUF9L = _ADC1BUF9
                       ADC1BUF9H = _ADC1BUF9
                      ADC1BUF10L = _ADC1BUF10
                      ADC1BUF10H = _ADC1BUF10
                      ADC1BUF11L = _ADC1BUF11
                      ADC1BUF11H = _ADC1BUF11
                      ADC1BUF12L = _ADC1BUF12
                      ADC1BUF12H = _ADC1BUF12
                      ADC1BUF13L = _ADC1BUF13
                      ADC1BUF13H = _ADC1BUF13
                      ADC1BUF14L = _ADC1BUF14
                      ADC1BUF14H = _ADC1BUF14
                      ADC1BUF15L = _ADC1BUF15
                      ADC1BUF15H = _ADC1BUF15
                      ADC1BUF16L = _ADC1BUF16
                      ADC1BUF16H = _ADC1BUF16
                      ADC1BUF17L = _ADC1BUF17
                      ADC1BUF17H = _ADC1BUF17
                        AD1CON1L = _AD1CON1
                        AD1CON1H = _AD1CON1
                        AD1CON2L = _AD1CON2
                        AD1CON2H = _AD1CON2
                        AD1CON3L = _AD1CON3
                        AD1CON3H = _AD1CON3
                         AD1CHSL = _AD1CHS
                         AD1CHSH = _AD1CHS
                        AD1CSSHL = _AD1CSSH
                        AD1CSSHH = _AD1CSSH
                        AD1CSSLL = _AD1CSSL
                        AD1CSSLH = _AD1CSSL
                        AD1CON5L = _AD1CON5
                        AD1CON5H = _AD1CON5
                       AD1CHITHL = _AD1CHITH
                       AD1CHITHH = _AD1CHITH
                       AD1CHITLL = _AD1CHITL
                       AD1CHITLH = _AD1CHITL
                       CTMUCON1L = _CTMUCON1
                       CTMUCON1H = _CTMUCON1
                       CTMUCON2L = _CTMUCON2
                       CTMUCON2H = _CTMUCON2
                       CTMUICONL = _CTMUICON
                       CTMUICONH = _CTMUICON
                     AD1CTMUENHL = _AD1CTMUENH
                     AD1CTMUENHH = _AD1CTMUENH
                     AD1CTMUENLL = _AD1CTMUENL
                     AD1CTMUENLH = _AD1CTMUENL
                           ANSAL = _ANSA
                           ANSAH = _ANSA
                         ANSELAL = _ANSELA
                         ANSELAH = _ANSELA
                           ANSBL = _ANSB
                           ANSBH = _ANSB
                         ANSELBL = _ANSELB
                         ANSELBH = _ANSELB
                        ALRMVALL = _ALRMVAL
                        ALRMVALH = _ALRMVAL
                       ALCFGRPTL = _ALCFGRPT
                       ALCFGRPTH = _ALCFGRPT
                         RTCVALL = _RTCVAL
                         RTCVALH = _RTCVAL
                        RCFGCALL = _RCFGCAL
                        RCFGCALH = _RCFGCAL
                         RTCPWCL = _RTCPWC
                         RTCPWCH = _RTCPWC
                         CMSTATL = _CMSTAT
                         CMSTATH = _CMSTAT
                         CVRCONL = _CVRCON
                         CVRCONH = _CVRCON
                         CM1CONL = _CM1CON
                         CM1CONH = _CM1CON
                         CM2CONL = _CM2CON
                         CM2CONH = _CM2CON
                         CM3CONL = _CM3CON
                         CM3CONH = _CM3CON
                        CRCCON1L = _CRCCON1
                        CRCCON1H = _CRCCON1
                        CRCCON2L = _CRCCON2
                        CRCCON2H = _CRCCON2
                        CRCXORLL = _CRCXORL
                        CRCXORLH = _CRCXORL
                        CRCXORHL = _CRCXORH
                        CRCXORHH = _CRCXORH
                       CRCDAT32L = _CRCDAT32
                       CRCDAT32H = _CRCDAT32
                        CRCDAT8L = _CRCDAT8
                        CRCDAT8H = _CRCDAT8
                        CRCDATLL = _CRCDATL
                        CRCDATLH = _CRCDATL
                        CRCDATHL = _CRCDATH
                        CRCDATHH = _CRCDATH
                       CRCWDATLL = _CRCWDATL
                       CRCWDATLH = _CRCWDATL
                       CRCWDATHL = _CRCWDATH
                       CRCWDATHH = _CRCWDATH
                           RCONL = _RCON
                           RCONH = _RCON
                        OSCCONLL = _OSCCONL
                        OSCCONLH = _OSCCONL
                        OSCCONHL = _OSCCONH
                        OSCCONHH = _OSCCONH
                         CLKDIVL = _CLKDIV
                         CLKDIVH = _CLKDIV
                         OSCTUNL = _OSCTUN
                         OSCTUNH = _OSCTUN
                        REFOCONL = _REFOCON
                        REFOCONH = _REFOCON
                        HLVDCONL = _HLVDCON
                        HLVDCONH = _HLVDCON
                          DSCONL = _DSCON
                          DSCONH = _DSCON
                         DSWAKEL = _DSWAKE
                         DSWAKEH = _DSWAKE
                         DSWSRCL = _DSWSRC
                         DSWSRCH = _DSWSRC
                         DSGPR0L = _DSGPR0
                         DSGPR0H = _DSGPR0
                         DSGPR1L = _DSGPR1
                         DSGPR1H = _DSGPR1
                         NVMCONL = _NVMCON
                         NVMCONH = _NVMCON
                         NVMKEYL = _NVMKEY
                         NVMKEYH = _NVMKEY
                        ULPWCONL = _ULPWCON
                        ULPWCONH = _ULPWCON
                           PMD1L = _PMD1
                           PMD1H = _PMD1
                           PMD2L = _PMD2
                           PMD2H = _PMD2
                           PMD3L = _PMD3
                           PMD3H = _PMD3
                           PMD4L = _PMD4
                           PMD4H = _PMD4
                               C = 0x0
                               Z = 0x1
                              OV = 0x2
                               N = 0x3
                              RA = 0x4
                              DC = 0x8
                            IPL0 = 0x5
                            IPL1 = 0x6
                            IPL2 = 0x7
                             PSV = 0x2
                            IPL3 = 0x3
                          CN0PDE = 0x0
                          CN1PDE = 0x1
                          CN2PDE = 0x2
                          CN3PDE = 0x3
                          CN4PDE = 0x4
                          CN5PDE = 0x5
                          CN6PDE = 0x6
                         CN11PDE = 0xb
                         CN12PDE = 0xc
                         CN13PDE = 0xd
                         CN14PDE = 0xe
                         CN21PDE = 0x5
                         CN22PDE = 0x6
                         CN23PDE = 0x7
                         CN29PDE = 0xd
                         CN30PDE = 0xe
                           CN0IE = 0x0
                           CN1IE = 0x1
                           CN2IE = 0x2
                           CN3IE = 0x3
                           CN4IE = 0x4
                           CN5IE = 0x5
                           CN6IE = 0x6
                          CN11IE = 0xb
                          CN12IE = 0xc
                          CN13IE = 0xd
                          CN14IE = 0xe
                          CN21IE = 0x5
                          CN22IE = 0x6
                          CN23IE = 0x7
                          CN29IE = 0xd
                          CN30IE = 0xe
                          CN0PUE = 0x0
                          CN1PUE = 0x1
                          CN2PUE = 0x2
                          CN3PUE = 0x3
                          CN4PUE = 0x4
                          CN5PUE = 0x5
                          CN6PUE = 0x6
                         CN11PUE = 0xb
                         CN12PUE = 0xc
                         CN13PUE = 0xd
                         CN14PUE = 0xe
                         CN21PUE = 0x5
                         CN22PUE = 0x6
                         CN23PUE = 0x7
                         CN29PUE = 0xd
                         CN30PUE = 0xe
                         OSCFAIL = 0x1
                          STKERR = 0x2
                         ADDRERR = 0x3
                         MATHERR = 0x4
                          NSTDIS = 0xf
                          INT0EP = 0x0
                          INT1EP = 0x1
                          INT2EP = 0x2
                            DISI = 0xe
                          ALTIVT = 0xf
                          INT0IF = 0x0
                           IC1IF = 0x1
                           OC1IF = 0x2
                            T1IF = 0x3
                           IC2IF = 0x5
                           OC2IF = 0x6
                            T2IF = 0x7
                            T3IF = 0x8
                          SPF1IF = 0x9
                          SPI1IF = 0xa
                          U1RXIF = 0xb
                          U1TXIF = 0xc
                           AD1IF = 0xd
                           NVMIF = 0xf
                         SI2C1IF = 0x0
                         MI2C1IF = 0x1
                            CMIF = 0x2
                            CNIF = 0x3
                          INT1IF = 0x4
                           OC3IF = 0x9
                            T4IF = 0xb
                            T5IF = 0xc
                          INT2IF = 0xd
                          U2RXIF = 0xe
                          U2TXIF = 0xf
                          SPF2IF = 0x0
                          SPI2IF = 0x1
                           IC3IF = 0x5
                         SI2C2IF = 0x1
                         MI2C2IF = 0x2
                           RTCIF = 0xe
                          U1ERIF = 0x1
                          U2ERIF = 0x2
                           CRCIF = 0x3
                          HLVDIF = 0x8
                          CTMUIF = 0xd
                         ULPWUIF = 0x0
                          INT0IE = 0x0
                           IC1IE = 0x1
                           OC1IE = 0x2
                            T1IE = 0x3
                           IC2IE = 0x5
                           OC2IE = 0x6
                            T2IE = 0x7
                            T3IE = 0x8
                          SPF1IE = 0x9
                          SPI1IE = 0xa
                          U1RXIE = 0xb
                          U1TXIE = 0xc
                           AD1IE = 0xd
                           NVMIE = 0xf
                         SI2C1IE = 0x0
                         MI2C1IE = 0x1
                            CMIE = 0x2
                            CNIE = 0x3
                          INT1IE = 0x4
                           OC3IE = 0x9
                            T4IE = 0xb
                            T5IE = 0xc
                          INT2IE = 0xd
                          U2RXIE = 0xe
                          U2TXIE = 0xf
                          SPF2IE = 0x0
                          SPI2IE = 0x1
                           IC3IE = 0x5
                         SI2C2IE = 0x1
                         MI2C2IE = 0x2
                           RTCIE = 0xe
                          U1ERIE = 0x1
                          U2ERIE = 0x2
                           CRCIE = 0x3
                          HLVDIE = 0x8
                          CTMUIE = 0xd
                         ULPWUIE = 0x0
                         INT0IP0 = 0x0
                         INT0IP1 = 0x1
                         INT0IP2 = 0x2
                          IC1IP0 = 0x4
                          IC1IP1 = 0x5
                          IC1IP2 = 0x6
                          OC1IP0 = 0x8
                          OC1IP1 = 0x9
                          OC1IP2 = 0xa
                           T1IP0 = 0xc
                           T1IP1 = 0xd
                           T1IP2 = 0xe
                          IC2IP0 = 0x4
                          IC2IP1 = 0x5
                          IC2IP2 = 0x6
                          OC2IP0 = 0x8
                          OC2IP1 = 0x9
                          OC2IP2 = 0xa
                           T2IP0 = 0xc
                           T2IP1 = 0xd
                           T2IP2 = 0xe
                           T3IP0 = 0x0
                           T3IP1 = 0x1
                           T3IP2 = 0x2
                         SPF1IP0 = 0x4
                         SPF1IP1 = 0x5
                         SPF1IP2 = 0x6
                         SPI1IP0 = 0x8
                         SPI1IP1 = 0x9
                         SPI1IP2 = 0xa
                         U1RXIP0 = 0xc
                         U1RXIP1 = 0xd
                         U1RXIP2 = 0xe
                         U1TXIP0 = 0x0
                         U1TXIP1 = 0x1
                         U1TXIP2 = 0x2
                          AD1IP0 = 0x4
                          AD1IP1 = 0x5
                          AD1IP2 = 0x6
                          NVMIP0 = 0xc
                          NVMIP1 = 0xd
                          NVMIP2 = 0xe
                         SI2C1P0 = 0x0
                         SI2C1P1 = 0x1
                         SI2C1P2 = 0x2
                         MI2C1P0 = 0x4
                         MI2C1P1 = 0x5
                         MI2C1P2 = 0x6
                           CMIP0 = 0x8
                           CMIP1 = 0x9
                           CMIP2 = 0xa
                           CNIP0 = 0xc
                           CNIP1 = 0xd
                           CNIP2 = 0xe
                        SI2C1IP0 = 0x0
                        SI2C1IP1 = 0x1
                        SI2C1IP2 = 0x2
                        MI2C1IP0 = 0x4
                        MI2C1IP1 = 0x5
                        MI2C1IP2 = 0x6
                         INT1IP0 = 0x0
                         INT1IP1 = 0x1
                         INT1IP2 = 0x2
                          OC3IP0 = 0x4
                          OC3IP1 = 0x5
                          OC3IP2 = 0x6
                           T4IP0 = 0xc
                           T4IP1 = 0xd
                           T4IP2 = 0xe
                           T5IP0 = 0x0
                           T5IP1 = 0x1
                           T5IP2 = 0x2
                         INT2IP0 = 0x4
                         INT2IP1 = 0x5
                         INT2IP2 = 0x6
                         U2RXIP0 = 0x8
                         U2RXIP1 = 0x9
                         U2RXIP2 = 0xa
                         U2TXIP0 = 0xc
                         U2TXIP1 = 0xd
                         U2TXIP2 = 0xe
                         SPF2IP0 = 0x0
                         SPF2IP1 = 0x1
                         SPF2IP2 = 0x2
                         SPI2IP0 = 0x4
                         SPI2IP1 = 0x5
                         SPI2IP2 = 0x6
                          IC3IP0 = 0x4
                          IC3IP1 = 0x5
                          IC3IP2 = 0x6
                        SI2C2IP0 = 0x4
                        SI2C2IP1 = 0x5
                        SI2C2IP2 = 0x6
                        MI2C2IP0 = 0x8
                        MI2C2IP1 = 0x9
                        MI2C2IP2 = 0xa
                         SI2C2P0 = 0x4
                         SI2C2P1 = 0x5
                         SI2C2P2 = 0x6
                         MI2C2P0 = 0x8
                         MI2C2P1 = 0x9
                         MI2C2P2 = 0xa
                          RTCIP0 = 0x8
                          RTCIP1 = 0x9
                          RTCIP2 = 0xa
                         U1ERIP0 = 0x4
                         U1ERIP1 = 0x5
                         U1ERIP2 = 0x6
                         U2ERIP0 = 0x8
                         U2ERIP1 = 0x9
                         U2ERIP2 = 0xa
                          CRCIP0 = 0xc
                          CRCIP1 = 0xd
                          CRCIP2 = 0xe
                         HLVDIP0 = 0x0
                         HLVDIP1 = 0x1
                         HLVDIP2 = 0x2
                         CTMUIP0 = 0x4
                         CTMUIP1 = 0x5
                         CTMUIP2 = 0x6
                        ULPWUIP0 = 0x0
                        ULPWUIP1 = 0x1
                        ULPWUIP2 = 0x2
                           VHOLD = 0xd
                          CPUIRQ = 0xf
                         VECNUM0 = 0x0
                         VECNUM1 = 0x1
                         VECNUM2 = 0x2
                         VECNUM3 = 0x3
                         VECNUM4 = 0x4
                         VECNUM5 = 0x5
                         VECNUM6 = 0x6
                            ILR0 = 0x8
                            ILR1 = 0x9
                            ILR2 = 0xa
                            ILR3 = 0xb
                             TCS = 0x1
                           TSYNC = 0x2
                           TGATE = 0x6
                           TSIDL = 0xd
                             TON = 0xf
                          TCKPS0 = 0x4
                          TCKPS1 = 0x5
                          T1ECS0 = 0x8
                          T1ECS1 = 0x9
                             T32 = 0x3
                           ICBNE = 0x3
                            ICOV = 0x4
                          ICSIDL = 0xd
                            ICM0 = 0x0
                            ICM1 = 0x1
                            ICM2 = 0x2
                            ICI0 = 0x5
                            ICI1 = 0x6
                        IC1TSEL0 = 0xa
                        IC1TSEL1 = 0xb
                        IC1TSEL2 = 0xc
                        TRIGSTAT = 0x6
                          ICTRIG = 0x7
                            IC32 = 0x8
                        SYNCSEL0 = 0x0
                        SYNCSEL1 = 0x1
                        SYNCSEL2 = 0x2
                        SYNCSEL3 = 0x3
                        SYNCSEL4 = 0x4
                        IC2TSEL0 = 0xa
                        IC2TSEL1 = 0xb
                        IC2TSEL2 = 0xc
                        IC3TSEL0 = 0xa
                        IC3TSEL1 = 0xb
                        IC3TSEL2 = 0xc
                        TRIGMODE = 0x3
                          OCSIDL = 0xd
                            OCM0 = 0x0
                            OCM1 = 0x1
                            OCM2 = 0x2
                          OCFLT0 = 0x4
                          OCFLT1 = 0x5
                          OCFLT2 = 0x6
                          ENFLT0 = 0x7
                          ENFLT1 = 0x8
                          ENFLT2 = 0x9
                         OCTSEL0 = 0xa
                         OCTSEL1 = 0xb
                         OCTSEL2 = 0xc
                          OCTRIS = 0x5
                          OCTRIG = 0x7
                            OC32 = 0x8
                         OCMPINV = 0xc
                        FLTTRIEN = 0xd
                          FLTOUT = 0xe
                           FLTMD = 0xf
                             DB0 = 0x9
                             DB1 = 0xa
                             SEN = 0x0
                            RSEN = 0x1
                             PEN = 0x2
                            RCEN = 0x3
                           ACKEN = 0x4
                           ACKDT = 0x5
                           STREN = 0x6
                            GCEN = 0x7
                            SMEN = 0x8
                          DISSLW = 0x9
                            A10M = 0xa
                          IPMIEN = 0xb
                          SCLREL = 0xc
                         I2CSIDL = 0xd
                           I2CEN = 0xf
                             TBF = 0x0
                             RBF = 0x1
                             R_W = 0x2
                               S = 0x3
                               P = 0x4
                             D_A = 0x5
                           I2COV = 0x6
                           IWCOL = 0x7
                           ADD10 = 0x8
                          GCSTAT = 0x9
                             BCL = 0xa
                          TRSTAT = 0xe
                         ACKSTAT = 0xf
                           STSEL = 0x0
                            BRGH = 0x3
                           RXINV = 0x4
                           ABAUD = 0x5
                          LPBACK = 0x6
                            WAKE = 0x7
                           RTSMD = 0xb
                            IREN = 0xc
                           USIDL = 0xd
                          UARTEN = 0xf
                          PDSEL0 = 0x1
                          PDSEL1 = 0x2
                            UEN0 = 0x8
                            UEN1 = 0x9
                           URXDA = 0x0
                            OERR = 0x1
                            FERR = 0x2
                            PERR = 0x3
                           RIDLE = 0x4
                           ADDEN = 0x5
                            TRMT = 0x8
                           UTXBF = 0x9
                           UTXEN = 0xa
                          UTXBRK = 0xb
                        UTXISEL0 = 0xd
                          UTXINV = 0xe
                        UTXISEL1 = 0xf
                        URXISEL0 = 0x6
                        URXISEL1 = 0x7
                         UTXREG0 = 0x0
                         UTXREG1 = 0x1
                         UTXREG2 = 0x2
                         UTXREG3 = 0x3
                         UTXREG4 = 0x4
                         UTXREG5 = 0x5
                         UTXREG6 = 0x6
                         UTXREG7 = 0x7
                         UTXREG8 = 0x8
                         URXREG0 = 0x0
                         URXREG1 = 0x1
                         URXREG2 = 0x2
                         URXREG3 = 0x3
                         URXREG4 = 0x4
                         URXREG5 = 0x5
                         URXREG6 = 0x6
                         URXREG7 = 0x7
                         URXREG8 = 0x8
                          SPIRBF = 0x0
                          SPITBF = 0x1
                          SR1MPT = 0x5
                          SPIROV = 0x6
                           SRMPT = 0x7
                         SPISIDL = 0xd
                           SPIEN = 0xf
                          SISEL0 = 0x2
                          SISEL1 = 0x3
                          SISEL2 = 0x4
                         SPIBEC0 = 0x8
                         SPIBEC1 = 0x9
                         SPIBEC2 = 0xa
                           MSTEN = 0x5
                             CKP = 0x6
                            SSEN = 0x7
                             CKE = 0x8
                             SMP = 0x9
                          MODE16 = 0xa
                          DISSDO = 0xb
                          DISSCK = 0xc
                           PPRE0 = 0x0
                           PPRE1 = 0x1
                           SPRE0 = 0x2
                           SPRE1 = 0x3
                           SPRE2 = 0x4
                          SPIBEN = 0x0
                           SPIFE = 0x1
                         SPIFPOL = 0xd
                          SPIFSD = 0xe
                           FRMEN = 0xf
                          TRISA0 = 0x0
                          TRISA1 = 0x1
                          TRISA2 = 0x2
                          TRISA3 = 0x3
                          TRISA4 = 0x4
                             RA0 = 0x0
                             RA1 = 0x1
                             RA2 = 0x2
                             RA3 = 0x3
                             RA4 = 0x4
                             RA5 = 0x5
                           LATA0 = 0x0
                           LATA1 = 0x1
                           LATA2 = 0x2
                           LATA3 = 0x3
                           LATA4 = 0x4
                            ODA0 = 0x0
                            ODA1 = 0x1
                            ODA2 = 0x2
                            ODA3 = 0x3
                            ODA4 = 0x4
                          TRISB0 = 0x0
                          TRISB1 = 0x1
                          TRISB2 = 0x2
                          TRISB4 = 0x4
                          TRISB7 = 0x7
                          TRISB8 = 0x8
                          TRISB9 = 0x9
                         TRISB12 = 0xc
                         TRISB13 = 0xd
                         TRISB14 = 0xe
                         TRISB15 = 0xf
                             RB0 = 0x0
                             RB1 = 0x1
                             RB2 = 0x2
                             RB4 = 0x4
                             RB7 = 0x7
                             RB8 = 0x8
                             RB9 = 0x9
                            RB12 = 0xc
                            RB13 = 0xd
                            RB14 = 0xe
                            RB15 = 0xf
                           LATB0 = 0x0
                           LATB1 = 0x1
                           LATB2 = 0x2
                           LATB4 = 0x4
                           LATB7 = 0x7
                           LATB8 = 0x8
                           LATB9 = 0x9
                          LATB12 = 0xc
                          LATB13 = 0xd
                          LATB14 = 0xe
                          LATB15 = 0xf
                            ODB0 = 0x0
                            ODB1 = 0x1
                            ODB2 = 0x2
                            ODB4 = 0x4
                            ODB7 = 0x7
                            ODB8 = 0x8
                            ODB9 = 0x9
                           ODB12 = 0xc
                           ODB13 = 0xd
                           ODB14 = 0xe
                           ODB15 = 0xf
                         SMBDEL0 = 0x4
                         SMBDEL1 = 0x5
                            DONE = 0x0
                            SAMP = 0x1
                            ASAM = 0x2
                          ADSIDL = 0xd
                            ADON = 0xf
                           SSRC0 = 0x4
                           SSRC1 = 0x5
                           SSRC2 = 0x6
                           SSRC3 = 0x7
                           FORM0 = 0x8
                           FORM1 = 0x9
                            ALTS = 0x0
                            BUFM = 0x1
                            BUFS = 0x7
                           CSCNA = 0xa
                        BUFREGEN = 0xb
                          OFFCAL = 0xc
                           NVCFG = 0xd
                           SMPI0 = 0x2
                           SMPI1 = 0x3
                           SMPI2 = 0x4
                           SMPI3 = 0x5
                           SMPI4 = 0x6
                           VCFG0 = 0xe
                           VCFG1 = 0xf
                          EXTSAM = 0xe
                            ADRC = 0xf
                           ADCS0 = 0x0
                           ADCS1 = 0x1
                           ADCS2 = 0x2
                           ADCS3 = 0x3
                           ADCS4 = 0x4
                           ADCS5 = 0x5
                           ADCS6 = 0x6
                           ADCS7 = 0x7
                           SAMC0 = 0x8
                           SAMC1 = 0x9
                           SAMC2 = 0xa
                           SAMC3 = 0xb
                           SAMC4 = 0xc
                          CH0SA0 = 0x0
                          CH0SA1 = 0x1
                          CH0SA2 = 0x2
                          CH0SA3 = 0x3
                          CH0SA4 = 0x4
                          CH0NA0 = 0x5
                          CH0NA1 = 0x6
                          CH0NA2 = 0x7
                          CH0SB0 = 0x8
                          CH0SB1 = 0x9
                          CH0SB2 = 0xa
                          CH0SB3 = 0xb
                          CH0SB4 = 0xc
                          CH0NB0 = 0xd
                          CH0NB1 = 0xe
                          CH0NB2 = 0xf
                           CSS16 = 0x0
                           CSS17 = 0x1
                           CSS26 = 0xa
                           CSS27 = 0xb
                           CSS28 = 0xc
                           CSS29 = 0xd
                           CSS30 = 0xe
                          CSSL16 = 0x0
                          CSSL17 = 0x1
                          CSSL26 = 0xa
                          CSSL27 = 0xb
                          CSSL28 = 0xc
                          CSSL29 = 0xd
                          CSSL30 = 0xe
                            CSS0 = 0x0
                            CSS1 = 0x1
                            CSS2 = 0x2
                            CSS3 = 0x3
                            CSS4 = 0x4
                            CSS5 = 0x5
                            CSS6 = 0x6
                            CSS7 = 0x7
                            CSS8 = 0x8
                            CSS9 = 0x9
                           CSS10 = 0xa
                           CSS11 = 0xb
                           CSS12 = 0xc
                           CSS13 = 0xd
                           CSS14 = 0xe
                           CSS15 = 0xf
                           CSSL0 = 0x0
                           CSSL1 = 0x1
                           CSSL2 = 0x2
                           CSSL3 = 0x3
                           CSSL4 = 0x4
                           CSSL5 = 0x5
                           CSSL6 = 0x6
                           CSSL7 = 0x7
                           CSSL8 = 0x8
                           CSSL9 = 0x9
                          CSSL10 = 0xa
                          CSSL11 = 0xb
                          CSSL12 = 0xc
                          CSSL13 = 0xd
                          CSSL14 = 0xe
                          CSSL15 = 0xf
                           BGREQ = 0xc
                         CTMUREQ = 0xd
                            LPEN = 0xe
                            ASEN = 0xf
                             CM0 = 0x0
                             CM1 = 0x1
                             WM0 = 0x2
                             WM1 = 0x3
                          ASINT0 = 0x8
                          ASINT1 = 0x9
                           CHH16 = 0x0
                           CHH17 = 0x1
                            CHH0 = 0x0
                            CHH1 = 0x1
                            CHH2 = 0x2
                            CHH3 = 0x3
                            CHH4 = 0x4
                            CHH5 = 0x5
                            CHH6 = 0x6
                            CHH7 = 0x7
                            CHH8 = 0x8
                            CHH9 = 0x9
                           CHH10 = 0xa
                           CHH11 = 0xb
                           CHH12 = 0xc
                           CHH13 = 0xd
                           CHH14 = 0xe
                           CHH15 = 0xf
                          CTTRIG = 0x8
                         IDISSEN = 0x9
                        EDGSEQEN = 0xa
                           EDGEN = 0xb
                            TGEN = 0xc
                        CTMUSIDL = 0xd
                          CTMUEN = 0xf
                         EDG2POL = 0x6
                        EDG2EDGE = 0x7
                            EDG1 = 0x8
                            EDG2 = 0x9
                         EDG1POL = 0xe
                        EDG1EDGE = 0xf
                        EDG1SEL0 = 0x2
                        EDG1SEL1 = 0x3
                        EDG1SEL2 = 0x4
                        EDG1SEL3 = 0x5
                        EDG2SEL0 = 0xa
                        EDG2SEL1 = 0xb
                        EDG2SEL2 = 0xc
                        EDG2SEL3 = 0xd
                           IRNG0 = 0x8
                           IRNG1 = 0x9
                          ITRIM0 = 0xa
                          ITRIM1 = 0xb
                          ITRIM2 = 0xc
                          ITRIM3 = 0xd
                          ITRIM4 = 0xe
                          ITRIM5 = 0xf
                         CTMEN16 = 0x0
                         CTMEN17 = 0x1
                         CTMEN26 = 0xa
                         CTMEN27 = 0xb
                         CTMEN28 = 0xc
                         CTMEN29 = 0xd
                         CTMEN30 = 0xe
                          CTMEN0 = 0x0
                          CTMEN1 = 0x1
                          CTMEN2 = 0x2
                          CTMEN3 = 0x3
                          CTMEN4 = 0x4
                          CTMEN5 = 0x5
                          CTMEN6 = 0x6
                          CTMEN7 = 0x7
                          CTMEN8 = 0x8
                          CTMEN9 = 0x9
                         CTMEN10 = 0xa
                         CTMEN11 = 0xb
                         CTMEN12 = 0xc
                         CTMEN13 = 0xd
                         CTMEN14 = 0xe
                         CTMEN15 = 0xf
                           ANSA0 = 0x0
                           ANSA1 = 0x1
                           ANSA2 = 0x2
                           ANSA3 = 0x3
                           ANSB0 = 0x0
                           ANSB1 = 0x1
                           ANSB2 = 0x2
                           ANSB4 = 0x4
                          ANSB12 = 0xc
                          ANSB13 = 0xd
                          ANSB14 = 0xe
                          ANSB15 = 0xf
                           CHIME = 0xe
                          ALRMEN = 0xf
                           ARPT0 = 0x0
                           ARPT1 = 0x1
                           ARPT2 = 0x2
                           ARPT3 = 0x3
                           ARPT4 = 0x4
                           ARPT5 = 0x5
                           ARPT6 = 0x6
                           ARPT7 = 0x7
                        ALRMPTR0 = 0x8
                        ALRMPTR1 = 0x9
                          AMASK0 = 0xa
                          AMASK1 = 0xb
                          AMASK2 = 0xc
                          AMASK3 = 0xd
                           RTCOE = 0xa
                         HALFSEC = 0xb
                         RTCSYNC = 0xc
                         RTCWREN = 0xd
                           RTCEN = 0xf
                            CAL0 = 0x0
                            CAL1 = 0x1
                            CAL2 = 0x2
                            CAL3 = 0x3
                            CAL4 = 0x4
                            CAL5 = 0x5
                            CAL6 = 0x6
                            CAL7 = 0x7
                         RTCPTR0 = 0x8
                         RTCPTR1 = 0x9
                         PWCSPRE = 0xc
                         PWCCPRE = 0xd
                          PWCPOL = 0xe
                           PWCEN = 0xf
                           C1OUT = 0x0
                           C2OUT = 0x1
                           C3OUT = 0x2
                           C1EVT = 0x8
                           C2EVT = 0x9
                           C3EVT = 0xa
                           CMIDL = 0xf
                           CVRSS = 0x4
                            CVRR = 0x5
                           CVROE = 0x6
                           CVREN = 0x7
                            CVR0 = 0x0
                            CVR1 = 0x1
                            CVR2 = 0x2
                            CVR3 = 0x3
                            CREF = 0x4
                            COUT = 0x8
                            CEVT = 0x9
                           CLPWR = 0xc
                            CPOL = 0xd
                             COE = 0xe
                             CON = 0xf
                            CCH0 = 0x0
                            CCH1 = 0x1
                          EVPOL0 = 0x6
                          EVPOL1 = 0x7
                         LENDIAN = 0x3
                           CRCGO = 0x4
                         CRCISEL = 0x5
                          CRCMPT = 0x6
                          CRCFUL = 0x7
                           CSIDL = 0xd
                           CRCEN = 0xf
                           PLEN0 = 0x0
                           PLEN1 = 0x1
                           PLEN2 = 0x2
                           PLEN3 = 0x3
                          VWORD0 = 0x8
                          VWORD1 = 0x9
                          VWORD2 = 0xa
                          VWORD3 = 0xb
                          VWORD4 = 0xc
                           PLEN4 = 0x4
                         DWIDTH0 = 0x8
                         DWIDTH1 = 0x9
                         DWIDTH2 = 0xa
                         DWIDTH3 = 0xb
                         DWIDTH4 = 0xc
                              X1 = 0x1
                              X2 = 0x2
                              X3 = 0x3
                              X4 = 0x4
                              X5 = 0x5
                              X6 = 0x6
                              X7 = 0x7
                              X8 = 0x8
                              X9 = 0x9
                             X10 = 0xa
                             X11 = 0xb
                             X12 = 0xc
                             X13 = 0xd
                             X14 = 0xe
                             X15 = 0xf
                             X16 = 0x0
                             X17 = 0x1
                             X18 = 0x2
                             X19 = 0x3
                             X20 = 0x4
                             X21 = 0x5
                             X22 = 0x6
                             X23 = 0x7
                             X24 = 0x8
                             X25 = 0x9
                             X26 = 0xa
                             X27 = 0xb
                             X28 = 0xc
                             X29 = 0xd
                             X30 = 0xe
                             X31 = 0xf
                             POR = 0x0
                             BOR = 0x1
                            IDLE = 0x2
                           SLEEP = 0x3
                            WDTO = 0x4
                          SWDTEN = 0x5
                             SWR = 0x6
                            EXTR = 0x7
                           PMSLP = 0x8
                         CM_RCON = 0x9
                           DPSLP = 0xa
                           LVREN = 0xc
                          SBOREN = 0xd
                          IOPUWR = 0xe
                           TRAPR = 0xf
                           VREGS = 0x8
                           RETEN = 0xc
                           OSWEN = 0x0
                          SOSCEN = 0x1
                         SOSCDRV = 0x2
                              CF = 0x3
                            LOCK = 0x5
                         CLKLOCK = 0x7
                           NOSC0 = 0x8
                           NOSC1 = 0x9
                           NOSC2 = 0xa
                           COSC0 = 0xc
                           COSC1 = 0xd
                           COSC2 = 0xe
                           DOZEN = 0xb
                             ROI = 0xf
                          RCDIV0 = 0x8
                          RCDIV1 = 0x9
                          RCDIV2 = 0xa
                           DOZE0 = 0xc
                           DOZE1 = 0xd
                           DOZE2 = 0xe
                            TUN0 = 0x0
                            TUN1 = 0x1
                            TUN2 = 0x2
                            TUN3 = 0x3
                            TUN4 = 0x4
                            TUN5 = 0x5
                           ROSEL = 0xc
                          ROSSLP = 0xd
                            ROEN = 0xf
                          RODIV0 = 0x8
                          RODIV1 = 0x9
                          RODIV2 = 0xa
                          RODIV3 = 0xb
                           IRVST = 0x5
                           BGVST = 0x6
                            VDIR = 0x7
                          HLSIDL = 0xd
                          HLVDEN = 0xf
                          HLVDL0 = 0x0
                          HLVDL1 = 0x1
                          HLVDL2 = 0x2
                          HLVDL3 = 0x3
                         RELEASE = 0x0
                           DSBOR = 0x1
                        ULPWUDIS = 0x2
                        RTCCWDIS = 0x8
                            DSEN = 0xf
                           DSPOR = 0x0
                          DSMCLR = 0x2
                          DSRTCC = 0x3
                           DSWDT = 0x4
                           DSFLT = 0x7
                          DSINT0 = 0x8
                           ERASE = 0x6
                         PGMONLY = 0xc
                           WRERR = 0xd
                            WREN = 0xe
                              WR = 0xf
                          NVMOP0 = 0x0
                          NVMOP1 = 0x1
                          NVMOP2 = 0x2
                          NVMOP3 = 0x3
                          NVMOP4 = 0x4
                          NVMOP5 = 0x5
                         NVMKEY0 = 0x0
                         NVMKEY1 = 0x1
                         NVMKEY2 = 0x2
                         NVMKEY3 = 0x3
                         NVMKEY4 = 0x4
                         NVMKEY5 = 0x5
                         NVMKEY6 = 0x6
                         NVMKEY7 = 0x7
                         ULPSINK = 0x8
                         ULPSIDL = 0xd
                           ULPEN = 0xf
                          ADC1MD = 0x0
                          SPI1MD = 0x3
                          SPI2MD = 0x4
                            U1MD = 0x5
                            U2MD = 0x6
                          I2C1MD = 0x7
                            T1MD = 0xb
                            T2MD = 0xc
                            T3MD = 0xd
                            T4MD = 0xe
                            T5MD = 0xf
                           OC1MD = 0x0
                           OC2MD = 0x1
                           OC3MD = 0x2
                           IC1MD = 0x8
                           IC2MD = 0x9
                           IC3MD = 0xa
                          I2C2MD = 0x1
                          CRCPMD = 0x7
                          RTCCMD = 0x9
                           CMPMD = 0xa
                          HLVDMD = 0x1
                          CTMUMD = 0x2
                          REFOMD = 0x3
                            EEMD = 0x4
                         ULPWUMD = 0x7
                      SLEEP_MODE = 0x0
                       IDLE_MODE = 0x1
                         BWRP_ON = 0xfffe
                        BWRP_OFF = 0xffff
                        BSS_HI2K = 0xfff3
                        BSS_HI1K = 0xfff5
                       BSS_STD2K = 0xfffb
                       BSS_STD1K = 0xfffd
                         BSS_OFF = 0xffff
                         GWRP_ON = 0xfffe
                        GWRP_OFF = 0xffff
                         GSS0_ON = 0xfffd
                        GSS0_OFF = 0xffff
                       FNOSC_FRC = 0xfff8
                    FNOSC_FRCPLL = 0xfff9
                       FNOSC_PRI = 0xfffa
                    FNOSC_PRIPLL = 0xfffb
                      FNOSC_SOSC = 0xfffc
                      FNOSC_LPRC = 0xfffd
                     FNOSC_LPFRC = 0xfffe
                    FNOSC_FRCDIV = 0xffff
                     SOSCSRC_DIG = 0xffdf
                     SOSCSRC_ANA = 0xffff
                      LPRCSEL_LP = 0xffbf
                      LPRCSEL_HP = 0xffff
                        IESO_OFF = 0xff7f
                         IESO_ON = 0xffff
                      POSCMOD_EC = 0xfffc
                      POSCMOD_XT = 0xfffd
                      POSCMOD_HS = 0xfffe
                    POSCMOD_NONE = 0xffff
                    OSCIOFNC_OFF = 0xfffb
                     OSCIOFNC_ON = 0xffff
                     POSCFREQ_LS = 0xffef
                     POSCFREQ_MS = 0xfff7
                     POSCFREQ_HS = 0xffff
                  SOSCSEL_SOSCLP = 0xffdf
                  SOSCSEL_SOSCHP = 0xffff
                    FCKSM_CSECME = 0xff3f
                    FCKSM_CSECMD = 0xff7f
                    FCKSM_CSDCMD = 0xffbf
                       WDTPS_PS1 = 0xfff0
                       WDTPS_PS2 = 0xfff1
                       WDTPS_PS4 = 0xfff2
                       WDTPS_PS8 = 0xfff3
                      WDTPS_PS16 = 0xfff4
                      WDTPS_PS32 = 0xfff5
                      WDTPS_PS64 = 0xfff6
                     WDTPS_PS128 = 0xfff7
                     WDTPS_PS256 = 0xfff8
                     WDTPS_PS512 = 0xfff9
                    WDTPS_PS1024 = 0xfffa
                    WDTPS_PS2048 = 0xfffb
                    WDTPS_PS4096 = 0xfffc
                    WDTPS_PS8192 = 0xfffd
                   WDTPS_PS16384 = 0xfffe
                   WDTPS_PS32768 = 0xffff
                      FWPSA_PR32 = 0xffef
                     FWPSA_PR128 = 0xffff
                      FWDTEN_OFF = 0xff5f
                    FWDTEN_NOSLP = 0xff7f
                     FWDTEN_SWON = 0xffdf
                       FWDTEN_ON = 0xffff
                       WINDIS_ON = 0xffbf
                      WINDIS_OFF = 0xffff
                      BOREN_BOR0 = 0xfffc
                      BOREN_BOR1 = 0xfffd
                      BOREN_BOR2 = 0xfffe
                      BOREN_BOR3 = 0xffff
                       LVRCFG_ON = 0xfffb
                      LVRCFG_OFF = 0xffff
                      PWRTEN_OFF = 0xfff7
                       PWRTEN_ON = 0xffff
                     I2C1SEL_SEC = 0xffef
                     I2C1SEL_PRI = 0xffff
                      BORV_LPBOR = 0xff9f
                        BORV_V30 = 0xffbf
                        BORV_V27 = 0xffdf
                        BORV_V20 = 0xffff
                       MCLRE_OFF = 0xff7f
                        MCLRE_ON = 0xffff
                        ICS_PGx3 = 0xfffd
                        ICS_PGx2 = 0xfffe
                        ICS_PGx1 = 0xffff
                DSWDTPS_DSWDTPS0 = 0xfff0
                DSWDTPS_DSWDTPS1 = 0xfff1
                DSWDTPS_DSWDTPS2 = 0xfff2
                DSWDTPS_DSWDTPS3 = 0xfff3
                DSWDTPS_DSWDTPS4 = 0xfff4
                DSWDTPS_DSWDTPS5 = 0xfff5
                DSWDTPS_DSWDTPS6 = 0xfff6
                DSWDTPS_DSWDTPS7 = 0xfff7
                DSWDTPS_DSWDTPS8 = 0xfff8
                DSWDTPS_DSWDTPS9 = 0xfff9
                DSWDTPS_DSWDTPSA = 0xfffa
                DSWDTPS_DSWDTPSB = 0xfffb
                DSWDTPS_DSWDTPSC = 0xfffc
                DSWDTPS_DSWDTPSD = 0xfffd
                DSWDTPS_DSWDTPSE = 0xfffe
                DSWDTPS_DSWDTPSF = 0xffff
                   DSWDTOSC_SOSC = 0xffef
                   DSWDTOSC_LPRC = 0xffff
                     DSBOREN_OFF = 0xffbf
                      DSBOREN_ON = 0xffff
                     DSWDTEN_OFF = 0xff7f
                      DSWDTEN_ON = 0xffff
                               b = 0x4
                    IR_key_Power = 0x15
                   IR_key_Muting = 0x14
                    IR_key_Sleep = 0x36
                   IR_key_TV_VCR = 0x25
                  IR_key_Display = 0x3a
                        IR_key_1 = 0x0
                        IR_key_2 = 0x1
                        IR_key_3 = 0x2
                        IR_key_4 = 0x3
                        IR_key_5 = 0x4
                        IR_key_6 = 0x5
                        IR_key_7 = 0x6
                        IR_key_8 = 0x7
                        IR_key_9 = 0x8
                        IR_key_0 = 0x9
                     IR_key_Jump = 0x3b
                    IR_key_Enter = 0xb
                   IR_key_Vol_up = 0x12
                 IR_key_Vol_down = 0x13
                    IR_key_Ch_up = 0x10
                  IR_key_Ch_down = 0x11
                    IR_key_Reset = 0x16
                     IR_key_Menu = 0x60
                       IR_key_up = 0x74
                     IR_key_down = 0x75
                     IR_key_left = 0x34
                    IR_key_right = 0x33
                   IR_key_center = 0x65
                  device_sony_tv = 0x1
                      osc_adjust = 0x0
                      speed_step = 0x1000
                      speed_norm = 0x7ffe
                         max_bor = 0xa
                       num_modes = 0xa
                    shutoff_time = 0x0
                        max_duty = 0xff
                      port_delay = 0x2a
                 port_delay_comp = 0x0
                      port_blank = 0x44
                        pr_value = 0xba
                       OCCON_VAL = 0x1c04
                      OCCON2_VAL = 0x100c
                   debounce_time = 0x10
                   debounce_bits = 0xffff
                  long_push_time = 0xf0
                       start_bit = 0x7d00
                   bit_threshold = 0x3840
                      accept_dev = 0x1
                   IR_timeout_pr = 0xfa
                        SW1_PORT = PORTA
                        SW1_TRIS = TRISA
                         SW1_ANS = ANSELA
                         SW1_BIT = 0x0
                          SW1_CN = 0x2
                         IR_PORT = PORTB
                         IR_TRIS = TRISB
                          IR_ANS = ANSELB
                          IR_BIT = 0xf
                           IR_CN = 0xb
                      AN_IN_PORT = PORTB
                      AN_IN_TRIS = TRISB
                          AN_ANS = ANSELB
                       AN_IN_BIT = 0xe
                        AN_IN_CN = 0xc
                      AN_IN_APIN = 0xa
                         COL_POL = 0x1
                         ROW_POL = 0x0
                        num_COLs = 0x9
                        num_ROWs = 0x1
                        num_LEDs = 0x9
                      LED_1_PORT = 0x0
                            _RA_ = 0x0
                       LED_1_PIN = 0x3
                      LED_2_PORT = 0x0
                       LED_2_PIN = 0x2
                      LED_3_PORT = 0xa
                            _RB_ = 0xa
                       LED_3_PIN = 0x2
                      LED_4_PORT = 0xa
                       LED_4_PIN = 0xd
                      LED_5_PORT = 0xa
                       LED_5_PIN = 0xc
                      LED_6_PORT = 0xa
                       LED_6_PIN = 0x9
                      LED_7_PORT = 0xa
                       LED_7_PIN = 0x8
                      LED_8_PORT = 0x0
                       LED_8_PIN = 0x4
                      LED_9_PORT = 0xa
                       LED_9_PIN = 0x4
                      PORTA_bits = 0x5
                      PORTB_bits = 0x10
                      PORTC_bits = 0x0
                       PWM_R_LAT = LATB
                       PWM_R_PIN = 0x7
                        PWM_R_OC = OC1RS
                       PWM_R_OCC = OC1CON1
                       PWM_G_LAT = LATB
                       PWM_G_PIN = 0x1
                        PWM_G_OC = OC3RS
                       PWM_G_OCC = OC3CON1
                       PWM_B_LAT = LATB
                       PWM_B_PIN = 0x0
                        PWM_B_OC = OC2RS
                       PWM_B_OCC = OC2CON1
                            _RC_ = 0x2a
                       mode_save = 0x0
                      speed_save = 0x2
                     do_not_read = 0x0
                        HSV_mode = 0x1
                        RND_mode = 0x2
                          analog = 0x3
                         an_peak = 0x4
                          IR_RCV = 0x5
                          IR_RCD = 0x7
                         dimmed1 = 0x8
                         dimmed2 = 0x9
                     ai_detected = 0xa
                          no_LED = 0xb
                     ana_devbit1 = 0x3
                    ana_samples1 = 0x8
                     ana_devbit2 = 0x5
                    ana_samples2 = 0x8
                    button_flags = 0x0
                        btn_down = 0x0
                        btn_long = 0x1
                        btn_push = 0x2
                         samples = 0x2
                       long_push = 0x4
                      anim_delay = 0x0
                  anim_duty_diff = 0x2
                    anim_step_up = 0x4
                  anim_step_down = 0x6
                anim_update_rate = 0x8
                     anim_update = 0xa
                   anim_max_duty = 0xc
              anim_release_waitH = 0xe
              anim_release_waitL = 0x10
                      anim_flags = 0x12
                    af_direction = 0x0
                 af_duty_hold_rs = 0x1
                anim_release_cnt = 0x14
                        DUTY_DIR = 0xe
                       DUTY_HOLD = 0xf
                     adc_floor_R = 0x108
                      adc_step_R = 0x46
                     adc_floor_G = 0x11f
                      adc_step_G = 0x5a
                     adc_floor_B = 0x194
                      adc_step_B = 0x82
                     adc_floor_V = 0x108
                      adc_step_V = 0x46
                     adc_floor_H = 0x12c
                      adc_step_H = 0xa
                     adc_floor_S = 0xa
                      adc_step_S = 0x1
                    peak_thres_h = 0x244
                    peak_thres_l = 0x1f4
                      peak_reset = 0x40
                       adc_floor = 0x20
                  ana_knee_point = 0x190
                       duty_knee = 0x6
                max_pulse_length = 0x75
                               x = 0xf2
                               y = 0x75
                     eeprom_addr = 0x7ffe00
